ARM GAS  C:\Users\BaiJiang\AppData\Local\Temp\cccWzF1j.s 			page 1


   1              		.cpu cortex-m3
   2              		.arch armv7-m
   3              		.fpu softvfp
   4              		.eabi_attribute 20, 1
   5              		.eabi_attribute 21, 1
   6              		.eabi_attribute 23, 3
   7              		.eabi_attribute 24, 1
   8              		.eabi_attribute 25, 1
   9              		.eabi_attribute 26, 1
  10              		.eabi_attribute 30, 1
  11              		.eabi_attribute 34, 1
  12              		.eabi_attribute 18, 4
  13              		.file	"stm32f1xx_it.c"
  14              		.text
  15              	.Ltext0:
  16              		.cfi_sections	.debug_frame
  17              		.file 1 "Core/Src/stm32f1xx_it.c"
  18              		.section	.text.NMI_Handler,"ax",%progbits
  19              		.align	1
  20              		.global	NMI_Handler
  21              		.syntax unified
  22              		.thumb
  23              		.thumb_func
  25              	NMI_Handler:
  26              	.LFB65:
   1:Core/Src/stm32f1xx_it.c **** /* USER CODE BEGIN Header */
   2:Core/Src/stm32f1xx_it.c **** /**
   3:Core/Src/stm32f1xx_it.c ****   ******************************************************************************
   4:Core/Src/stm32f1xx_it.c ****   * @file    stm32f1xx_it.c
   5:Core/Src/stm32f1xx_it.c ****   * @brief   Interrupt Service Routines.
   6:Core/Src/stm32f1xx_it.c ****   ******************************************************************************
   7:Core/Src/stm32f1xx_it.c ****   * @attention
   8:Core/Src/stm32f1xx_it.c ****   *
   9:Core/Src/stm32f1xx_it.c ****   * Copyright (c) 2026 STMicroelectronics.
  10:Core/Src/stm32f1xx_it.c ****   * All rights reserved.
  11:Core/Src/stm32f1xx_it.c ****   *
  12:Core/Src/stm32f1xx_it.c ****   * This software is licensed under terms that can be found in the LICENSE file
  13:Core/Src/stm32f1xx_it.c ****   * in the root directory of this software component.
  14:Core/Src/stm32f1xx_it.c ****   * If no LICENSE file comes with this software, it is provided AS-IS.
  15:Core/Src/stm32f1xx_it.c ****   *
  16:Core/Src/stm32f1xx_it.c ****   ******************************************************************************
  17:Core/Src/stm32f1xx_it.c ****   */
  18:Core/Src/stm32f1xx_it.c **** /* USER CODE END Header */
  19:Core/Src/stm32f1xx_it.c **** 
  20:Core/Src/stm32f1xx_it.c **** /* Includes ------------------------------------------------------------------*/
  21:Core/Src/stm32f1xx_it.c **** #include "main.h"
  22:Core/Src/stm32f1xx_it.c **** #include "stm32f1xx_it.h"
  23:Core/Src/stm32f1xx_it.c **** /* Private includes ----------------------------------------------------------*/
  24:Core/Src/stm32f1xx_it.c **** /* USER CODE BEGIN Includes */
  25:Core/Src/stm32f1xx_it.c **** #include "KEY.h"
  26:Core/Src/stm32f1xx_it.c **** /* USER CODE END Includes */
  27:Core/Src/stm32f1xx_it.c **** 
  28:Core/Src/stm32f1xx_it.c **** /* Private typedef -----------------------------------------------------------*/
  29:Core/Src/stm32f1xx_it.c **** /* USER CODE BEGIN TD */
  30:Core/Src/stm32f1xx_it.c **** extern KEY_HandleTypeDef key_handler;
  31:Core/Src/stm32f1xx_it.c **** extern uint8_t report1[20];
  32:Core/Src/stm32f1xx_it.c **** extern uint8_t report[20];
ARM GAS  C:\Users\BaiJiang\AppData\Local\Temp\cccWzF1j.s 			page 2


  33:Core/Src/stm32f1xx_it.c **** void hid_write_ep(uint8_t busid,uint8_t* data,uint16_t len,uint8_t ep);
  34:Core/Src/stm32f1xx_it.c **** /* USER CODE END TD */
  35:Core/Src/stm32f1xx_it.c **** 
  36:Core/Src/stm32f1xx_it.c **** /* Private define ------------------------------------------------------------*/
  37:Core/Src/stm32f1xx_it.c **** /* USER CODE BEGIN PD */
  38:Core/Src/stm32f1xx_it.c **** 
  39:Core/Src/stm32f1xx_it.c **** /* USER CODE END PD */
  40:Core/Src/stm32f1xx_it.c **** 
  41:Core/Src/stm32f1xx_it.c **** /* Private macro -------------------------------------------------------------*/
  42:Core/Src/stm32f1xx_it.c **** /* USER CODE BEGIN PM */
  43:Core/Src/stm32f1xx_it.c **** 
  44:Core/Src/stm32f1xx_it.c **** /* USER CODE END PM */
  45:Core/Src/stm32f1xx_it.c **** 
  46:Core/Src/stm32f1xx_it.c **** /* Private variables ---------------------------------------------------------*/
  47:Core/Src/stm32f1xx_it.c **** /* USER CODE BEGIN PV */
  48:Core/Src/stm32f1xx_it.c **** 
  49:Core/Src/stm32f1xx_it.c **** /* USER CODE END PV */
  50:Core/Src/stm32f1xx_it.c **** 
  51:Core/Src/stm32f1xx_it.c **** /* Private function prototypes -----------------------------------------------*/
  52:Core/Src/stm32f1xx_it.c **** /* USER CODE BEGIN PFP */
  53:Core/Src/stm32f1xx_it.c **** 
  54:Core/Src/stm32f1xx_it.c **** /* USER CODE END PFP */
  55:Core/Src/stm32f1xx_it.c **** 
  56:Core/Src/stm32f1xx_it.c **** /* Private user code ---------------------------------------------------------*/
  57:Core/Src/stm32f1xx_it.c **** /* USER CODE BEGIN 0 */
  58:Core/Src/stm32f1xx_it.c **** 
  59:Core/Src/stm32f1xx_it.c **** /* USER CODE END 0 */
  60:Core/Src/stm32f1xx_it.c **** 
  61:Core/Src/stm32f1xx_it.c **** /* External variables --------------------------------------------------------*/
  62:Core/Src/stm32f1xx_it.c **** extern TIM_HandleTypeDef htim7;
  63:Core/Src/stm32f1xx_it.c **** extern PCD_HandleTypeDef hpcd_USB_FS;
  64:Core/Src/stm32f1xx_it.c **** extern TIM_HandleTypeDef htim6;
  65:Core/Src/stm32f1xx_it.c **** 
  66:Core/Src/stm32f1xx_it.c **** /* USER CODE BEGIN EV */
  67:Core/Src/stm32f1xx_it.c **** 
  68:Core/Src/stm32f1xx_it.c **** /* USER CODE END EV */
  69:Core/Src/stm32f1xx_it.c **** 
  70:Core/Src/stm32f1xx_it.c **** /******************************************************************************/
  71:Core/Src/stm32f1xx_it.c **** /*           Cortex-M3 Processor Interruption and Exception Handlers          */
  72:Core/Src/stm32f1xx_it.c **** /******************************************************************************/
  73:Core/Src/stm32f1xx_it.c **** /**
  74:Core/Src/stm32f1xx_it.c ****   * @brief This function handles Non maskable interrupt.
  75:Core/Src/stm32f1xx_it.c ****   */
  76:Core/Src/stm32f1xx_it.c **** void NMI_Handler(void)
  77:Core/Src/stm32f1xx_it.c **** {
  27              		.loc 1 77 1 view -0
  28              		.cfi_startproc
  29              		@ Volatile: function does not return.
  30              		@ args = 0, pretend = 0, frame = 0
  31              		@ frame_needed = 0, uses_anonymous_args = 0
  32              		@ link register save eliminated.
  33              	.L2:
  78:Core/Src/stm32f1xx_it.c ****   /* USER CODE BEGIN NonMaskableInt_IRQn 0 */
  79:Core/Src/stm32f1xx_it.c **** 
  80:Core/Src/stm32f1xx_it.c ****   /* USER CODE END NonMaskableInt_IRQn 0 */
  81:Core/Src/stm32f1xx_it.c ****   /* USER CODE BEGIN NonMaskableInt_IRQn 1 */
  82:Core/Src/stm32f1xx_it.c ****    while (1)
ARM GAS  C:\Users\BaiJiang\AppData\Local\Temp\cccWzF1j.s 			page 3


  34              		.loc 1 82 4 view .LVU1
  83:Core/Src/stm32f1xx_it.c ****   {
  84:Core/Src/stm32f1xx_it.c ****   }
  35              		.loc 1 84 3 view .LVU2
  82:Core/Src/stm32f1xx_it.c ****   {
  36              		.loc 1 82 10 view .LVU3
  37 0000 FEE7     		b	.L2
  38              		.cfi_endproc
  39              	.LFE65:
  41              		.section	.text.HardFault_Handler,"ax",%progbits
  42              		.align	1
  43              		.global	HardFault_Handler
  44              		.syntax unified
  45              		.thumb
  46              		.thumb_func
  48              	HardFault_Handler:
  49              	.LFB66:
  85:Core/Src/stm32f1xx_it.c ****   /* USER CODE END NonMaskableInt_IRQn 1 */
  86:Core/Src/stm32f1xx_it.c **** }
  87:Core/Src/stm32f1xx_it.c **** 
  88:Core/Src/stm32f1xx_it.c **** /**
  89:Core/Src/stm32f1xx_it.c ****   * @brief This function handles Hard fault interrupt.
  90:Core/Src/stm32f1xx_it.c ****   */
  91:Core/Src/stm32f1xx_it.c **** void HardFault_Handler(void)
  92:Core/Src/stm32f1xx_it.c **** {
  50              		.loc 1 92 1 view -0
  51              		.cfi_startproc
  52              		@ Volatile: function does not return.
  53              		@ args = 0, pretend = 0, frame = 0
  54              		@ frame_needed = 0, uses_anonymous_args = 0
  55              		@ link register save eliminated.
  56              	.L4:
  93:Core/Src/stm32f1xx_it.c ****   /* USER CODE BEGIN HardFault_IRQn 0 */
  94:Core/Src/stm32f1xx_it.c **** 
  95:Core/Src/stm32f1xx_it.c ****   /* USER CODE END HardFault_IRQn 0 */
  96:Core/Src/stm32f1xx_it.c ****   while (1)
  57              		.loc 1 96 3 view .LVU5
  97:Core/Src/stm32f1xx_it.c ****   {
  98:Core/Src/stm32f1xx_it.c ****     /* USER CODE BEGIN W1_HardFault_IRQn 0 */
  99:Core/Src/stm32f1xx_it.c ****     /* USER CODE END W1_HardFault_IRQn 0 */
 100:Core/Src/stm32f1xx_it.c ****   }
  58              		.loc 1 100 3 view .LVU6
  96:Core/Src/stm32f1xx_it.c ****   {
  59              		.loc 1 96 9 view .LVU7
  60 0000 FEE7     		b	.L4
  61              		.cfi_endproc
  62              	.LFE66:
  64              		.section	.text.MemManage_Handler,"ax",%progbits
  65              		.align	1
  66              		.global	MemManage_Handler
  67              		.syntax unified
  68              		.thumb
  69              		.thumb_func
  71              	MemManage_Handler:
  72              	.LFB67:
 101:Core/Src/stm32f1xx_it.c **** }
 102:Core/Src/stm32f1xx_it.c **** 
ARM GAS  C:\Users\BaiJiang\AppData\Local\Temp\cccWzF1j.s 			page 4


 103:Core/Src/stm32f1xx_it.c **** /**
 104:Core/Src/stm32f1xx_it.c ****   * @brief This function handles Memory management fault.
 105:Core/Src/stm32f1xx_it.c ****   */
 106:Core/Src/stm32f1xx_it.c **** void MemManage_Handler(void)
 107:Core/Src/stm32f1xx_it.c **** {
  73              		.loc 1 107 1 view -0
  74              		.cfi_startproc
  75              		@ Volatile: function does not return.
  76              		@ args = 0, pretend = 0, frame = 0
  77              		@ frame_needed = 0, uses_anonymous_args = 0
  78              		@ link register save eliminated.
  79              	.L6:
 108:Core/Src/stm32f1xx_it.c ****   /* USER CODE BEGIN MemoryManagement_IRQn 0 */
 109:Core/Src/stm32f1xx_it.c **** 
 110:Core/Src/stm32f1xx_it.c ****   /* USER CODE END MemoryManagement_IRQn 0 */
 111:Core/Src/stm32f1xx_it.c ****   while (1)
  80              		.loc 1 111 3 view .LVU9
 112:Core/Src/stm32f1xx_it.c ****   {
 113:Core/Src/stm32f1xx_it.c ****     /* USER CODE BEGIN W1_MemoryManagement_IRQn 0 */
 114:Core/Src/stm32f1xx_it.c ****     /* USER CODE END W1_MemoryManagement_IRQn 0 */
 115:Core/Src/stm32f1xx_it.c ****   }
  81              		.loc 1 115 3 view .LVU10
 111:Core/Src/stm32f1xx_it.c ****   {
  82              		.loc 1 111 9 view .LVU11
  83 0000 FEE7     		b	.L6
  84              		.cfi_endproc
  85              	.LFE67:
  87              		.section	.text.BusFault_Handler,"ax",%progbits
  88              		.align	1
  89              		.global	BusFault_Handler
  90              		.syntax unified
  91              		.thumb
  92              		.thumb_func
  94              	BusFault_Handler:
  95              	.LFB68:
 116:Core/Src/stm32f1xx_it.c **** }
 117:Core/Src/stm32f1xx_it.c **** 
 118:Core/Src/stm32f1xx_it.c **** /**
 119:Core/Src/stm32f1xx_it.c ****   * @brief This function handles Prefetch fault, memory access fault.
 120:Core/Src/stm32f1xx_it.c ****   */
 121:Core/Src/stm32f1xx_it.c **** void BusFault_Handler(void)
 122:Core/Src/stm32f1xx_it.c **** {
  96              		.loc 1 122 1 view -0
  97              		.cfi_startproc
  98              		@ Volatile: function does not return.
  99              		@ args = 0, pretend = 0, frame = 0
 100              		@ frame_needed = 0, uses_anonymous_args = 0
 101              		@ link register save eliminated.
 102              	.L8:
 123:Core/Src/stm32f1xx_it.c ****   /* USER CODE BEGIN BusFault_IRQn 0 */
 124:Core/Src/stm32f1xx_it.c **** 
 125:Core/Src/stm32f1xx_it.c ****   /* USER CODE END BusFault_IRQn 0 */
 126:Core/Src/stm32f1xx_it.c ****   while (1)
 103              		.loc 1 126 3 view .LVU13
 127:Core/Src/stm32f1xx_it.c ****   {
 128:Core/Src/stm32f1xx_it.c ****     /* USER CODE BEGIN W1_BusFault_IRQn 0 */
 129:Core/Src/stm32f1xx_it.c ****     /* USER CODE END W1_BusFault_IRQn 0 */
ARM GAS  C:\Users\BaiJiang\AppData\Local\Temp\cccWzF1j.s 			page 5


 130:Core/Src/stm32f1xx_it.c ****   }
 104              		.loc 1 130 3 view .LVU14
 126:Core/Src/stm32f1xx_it.c ****   {
 105              		.loc 1 126 9 view .LVU15
 106 0000 FEE7     		b	.L8
 107              		.cfi_endproc
 108              	.LFE68:
 110              		.section	.text.UsageFault_Handler,"ax",%progbits
 111              		.align	1
 112              		.global	UsageFault_Handler
 113              		.syntax unified
 114              		.thumb
 115              		.thumb_func
 117              	UsageFault_Handler:
 118              	.LFB69:
 131:Core/Src/stm32f1xx_it.c **** }
 132:Core/Src/stm32f1xx_it.c **** 
 133:Core/Src/stm32f1xx_it.c **** /**
 134:Core/Src/stm32f1xx_it.c ****   * @brief This function handles Undefined instruction or illegal state.
 135:Core/Src/stm32f1xx_it.c ****   */
 136:Core/Src/stm32f1xx_it.c **** void UsageFault_Handler(void)
 137:Core/Src/stm32f1xx_it.c **** {
 119              		.loc 1 137 1 view -0
 120              		.cfi_startproc
 121              		@ Volatile: function does not return.
 122              		@ args = 0, pretend = 0, frame = 0
 123              		@ frame_needed = 0, uses_anonymous_args = 0
 124              		@ link register save eliminated.
 125              	.L10:
 138:Core/Src/stm32f1xx_it.c ****   /* USER CODE BEGIN UsageFault_IRQn 0 */
 139:Core/Src/stm32f1xx_it.c **** 
 140:Core/Src/stm32f1xx_it.c ****   /* USER CODE END UsageFault_IRQn 0 */
 141:Core/Src/stm32f1xx_it.c ****   while (1)
 126              		.loc 1 141 3 view .LVU17
 142:Core/Src/stm32f1xx_it.c ****   {
 143:Core/Src/stm32f1xx_it.c ****     /* USER CODE BEGIN W1_UsageFault_IRQn 0 */
 144:Core/Src/stm32f1xx_it.c ****     /* USER CODE END W1_UsageFault_IRQn 0 */
 145:Core/Src/stm32f1xx_it.c ****   }
 127              		.loc 1 145 3 view .LVU18
 141:Core/Src/stm32f1xx_it.c ****   {
 128              		.loc 1 141 9 view .LVU19
 129 0000 FEE7     		b	.L10
 130              		.cfi_endproc
 131              	.LFE69:
 133              		.section	.text.SVC_Handler,"ax",%progbits
 134              		.align	1
 135              		.global	SVC_Handler
 136              		.syntax unified
 137              		.thumb
 138              		.thumb_func
 140              	SVC_Handler:
 141              	.LFB70:
 146:Core/Src/stm32f1xx_it.c **** }
 147:Core/Src/stm32f1xx_it.c **** 
 148:Core/Src/stm32f1xx_it.c **** /**
 149:Core/Src/stm32f1xx_it.c ****   * @brief This function handles System service call via SWI instruction.
 150:Core/Src/stm32f1xx_it.c ****   */
ARM GAS  C:\Users\BaiJiang\AppData\Local\Temp\cccWzF1j.s 			page 6


 151:Core/Src/stm32f1xx_it.c **** void SVC_Handler(void)
 152:Core/Src/stm32f1xx_it.c **** {
 142              		.loc 1 152 1 view -0
 143              		.cfi_startproc
 144              		@ args = 0, pretend = 0, frame = 0
 145              		@ frame_needed = 0, uses_anonymous_args = 0
 146              		@ link register save eliminated.
 153:Core/Src/stm32f1xx_it.c ****   /* USER CODE BEGIN SVCall_IRQn 0 */
 154:Core/Src/stm32f1xx_it.c **** 
 155:Core/Src/stm32f1xx_it.c ****   /* USER CODE END SVCall_IRQn 0 */
 156:Core/Src/stm32f1xx_it.c ****   /* USER CODE BEGIN SVCall_IRQn 1 */
 157:Core/Src/stm32f1xx_it.c **** 
 158:Core/Src/stm32f1xx_it.c ****   /* USER CODE END SVCall_IRQn 1 */
 159:Core/Src/stm32f1xx_it.c **** }
 147              		.loc 1 159 1 view .LVU21
 148 0000 7047     		bx	lr
 149              		.cfi_endproc
 150              	.LFE70:
 152              		.section	.text.DebugMon_Handler,"ax",%progbits
 153              		.align	1
 154              		.global	DebugMon_Handler
 155              		.syntax unified
 156              		.thumb
 157              		.thumb_func
 159              	DebugMon_Handler:
 160              	.LFB71:
 160:Core/Src/stm32f1xx_it.c **** 
 161:Core/Src/stm32f1xx_it.c **** /**
 162:Core/Src/stm32f1xx_it.c ****   * @brief This function handles Debug monitor.
 163:Core/Src/stm32f1xx_it.c ****   */
 164:Core/Src/stm32f1xx_it.c **** void DebugMon_Handler(void)
 165:Core/Src/stm32f1xx_it.c **** {
 161              		.loc 1 165 1 view -0
 162              		.cfi_startproc
 163              		@ args = 0, pretend = 0, frame = 0
 164              		@ frame_needed = 0, uses_anonymous_args = 0
 165              		@ link register save eliminated.
 166:Core/Src/stm32f1xx_it.c ****   /* USER CODE BEGIN DebugMonitor_IRQn 0 */
 167:Core/Src/stm32f1xx_it.c **** 
 168:Core/Src/stm32f1xx_it.c ****   /* USER CODE END DebugMonitor_IRQn 0 */
 169:Core/Src/stm32f1xx_it.c ****   /* USER CODE BEGIN DebugMonitor_IRQn 1 */
 170:Core/Src/stm32f1xx_it.c **** 
 171:Core/Src/stm32f1xx_it.c ****   /* USER CODE END DebugMonitor_IRQn 1 */
 172:Core/Src/stm32f1xx_it.c **** }
 166              		.loc 1 172 1 view .LVU23
 167 0000 7047     		bx	lr
 168              		.cfi_endproc
 169              	.LFE71:
 171              		.section	.text.PendSV_Handler,"ax",%progbits
 172              		.align	1
 173              		.global	PendSV_Handler
 174              		.syntax unified
 175              		.thumb
 176              		.thumb_func
 178              	PendSV_Handler:
 179              	.LFB72:
 173:Core/Src/stm32f1xx_it.c **** 
ARM GAS  C:\Users\BaiJiang\AppData\Local\Temp\cccWzF1j.s 			page 7


 174:Core/Src/stm32f1xx_it.c **** /**
 175:Core/Src/stm32f1xx_it.c ****   * @brief This function handles Pendable request for system service.
 176:Core/Src/stm32f1xx_it.c ****   */
 177:Core/Src/stm32f1xx_it.c **** void PendSV_Handler(void)
 178:Core/Src/stm32f1xx_it.c **** {
 180              		.loc 1 178 1 view -0
 181              		.cfi_startproc
 182              		@ args = 0, pretend = 0, frame = 0
 183              		@ frame_needed = 0, uses_anonymous_args = 0
 184              		@ link register save eliminated.
 179:Core/Src/stm32f1xx_it.c ****   /* USER CODE BEGIN PendSV_IRQn 0 */
 180:Core/Src/stm32f1xx_it.c **** 
 181:Core/Src/stm32f1xx_it.c ****   /* USER CODE END PendSV_IRQn 0 */
 182:Core/Src/stm32f1xx_it.c ****   /* USER CODE BEGIN PendSV_IRQn 1 */
 183:Core/Src/stm32f1xx_it.c **** 
 184:Core/Src/stm32f1xx_it.c ****   /* USER CODE END PendSV_IRQn 1 */
 185:Core/Src/stm32f1xx_it.c **** }
 185              		.loc 1 185 1 view .LVU25
 186 0000 7047     		bx	lr
 187              		.cfi_endproc
 188              	.LFE72:
 190              		.section	.text.SysTick_Handler,"ax",%progbits
 191              		.align	1
 192              		.global	SysTick_Handler
 193              		.syntax unified
 194              		.thumb
 195              		.thumb_func
 197              	SysTick_Handler:
 198              	.LFB73:
 186:Core/Src/stm32f1xx_it.c **** 
 187:Core/Src/stm32f1xx_it.c **** /**
 188:Core/Src/stm32f1xx_it.c ****   * @brief This function handles System tick timer.
 189:Core/Src/stm32f1xx_it.c ****   */
 190:Core/Src/stm32f1xx_it.c **** void SysTick_Handler(void)
 191:Core/Src/stm32f1xx_it.c **** {
 199              		.loc 1 191 1 view -0
 200              		.cfi_startproc
 201              		@ args = 0, pretend = 0, frame = 0
 202              		@ frame_needed = 0, uses_anonymous_args = 0
 203              		@ link register save eliminated.
 192:Core/Src/stm32f1xx_it.c ****   /* USER CODE BEGIN SysTick_IRQn 0 */
 193:Core/Src/stm32f1xx_it.c **** 
 194:Core/Src/stm32f1xx_it.c ****   /* USER CODE END SysTick_IRQn 0 */
 195:Core/Src/stm32f1xx_it.c **** 
 196:Core/Src/stm32f1xx_it.c ****   /* USER CODE BEGIN SysTick_IRQn 1 */
 197:Core/Src/stm32f1xx_it.c **** 
 198:Core/Src/stm32f1xx_it.c ****   /* USER CODE END SysTick_IRQn 1 */
 199:Core/Src/stm32f1xx_it.c **** }
 204              		.loc 1 199 1 view .LVU27
 205 0000 7047     		bx	lr
 206              		.cfi_endproc
 207              	.LFE73:
 209              		.section	.text.TIM6_IRQHandler,"ax",%progbits
 210              		.align	1
 211              		.global	TIM6_IRQHandler
 212              		.syntax unified
 213              		.thumb
ARM GAS  C:\Users\BaiJiang\AppData\Local\Temp\cccWzF1j.s 			page 8


 214              		.thumb_func
 216              	TIM6_IRQHandler:
 217              	.LFB74:
 200:Core/Src/stm32f1xx_it.c **** 
 201:Core/Src/stm32f1xx_it.c **** /******************************************************************************/
 202:Core/Src/stm32f1xx_it.c **** /* STM32F1xx Peripheral Interrupt Handlers                                    */
 203:Core/Src/stm32f1xx_it.c **** /* Add here the Interrupt Handlers for the used peripherals.                  */
 204:Core/Src/stm32f1xx_it.c **** /* For the available peripheral interrupt handler names,                      */
 205:Core/Src/stm32f1xx_it.c **** /* please refer to the startup file (startup_stm32f1xx.s).                    */
 206:Core/Src/stm32f1xx_it.c **** /******************************************************************************/
 207:Core/Src/stm32f1xx_it.c **** 
 208:Core/Src/stm32f1xx_it.c **** /**
 209:Core/Src/stm32f1xx_it.c ****   * @brief This function handles USB high priority or CAN TX interrupts.
 210:Core/Src/stm32f1xx_it.c ****   */
 211:Core/Src/stm32f1xx_it.c **** // void USB_HP_CAN1_TX_IRQHandler(void)
 212:Core/Src/stm32f1xx_it.c **** // {
 213:Core/Src/stm32f1xx_it.c **** //   /* USER CODE BEGIN USB_HP_CAN1_TX_IRQn 0 */
 214:Core/Src/stm32f1xx_it.c **** 
 215:Core/Src/stm32f1xx_it.c **** //   /* USER CODE END USB_HP_CAN1_TX_IRQn 0 */
 216:Core/Src/stm32f1xx_it.c **** //   HAL_PCD_IRQHandler(&hpcd_USB_FS);
 217:Core/Src/stm32f1xx_it.c **** //   /* USER CODE BEGIN USB_HP_CAN1_TX_IRQn 1 */
 218:Core/Src/stm32f1xx_it.c **** 
 219:Core/Src/stm32f1xx_it.c **** //   /* USER CODE END USB_HP_CAN1_TX_IRQn 1 */
 220:Core/Src/stm32f1xx_it.c **** // }
 221:Core/Src/stm32f1xx_it.c **** 
 222:Core/Src/stm32f1xx_it.c **** /**
 223:Core/Src/stm32f1xx_it.c ****   * @brief This function handles USB low priority or CAN RX0 interrupts.
 224:Core/Src/stm32f1xx_it.c ****   */
 225:Core/Src/stm32f1xx_it.c **** // void USB_LP_CAN1_RX0_IRQHandler(void)
 226:Core/Src/stm32f1xx_it.c **** // {
 227:Core/Src/stm32f1xx_it.c **** //   /* USER CODE BEGIN USB_LP_CAN1_RX0_IRQn 0 */
 228:Core/Src/stm32f1xx_it.c **** 
 229:Core/Src/stm32f1xx_it.c **** //   /* USER CODE END USB_LP_CAN1_RX0_IRQn 0 */
 230:Core/Src/stm32f1xx_it.c **** //   HAL_PCD_IRQHandler(&hpcd_USB_FS);
 231:Core/Src/stm32f1xx_it.c **** //   /* USER CODE BEGIN USB_LP_CAN1_RX0_IRQn 1 */
 232:Core/Src/stm32f1xx_it.c **** 
 233:Core/Src/stm32f1xx_it.c **** //   /* USER CODE END USB_LP_CAN1_RX0_IRQn 1 */
 234:Core/Src/stm32f1xx_it.c **** // }
 235:Core/Src/stm32f1xx_it.c **** 
 236:Core/Src/stm32f1xx_it.c **** /**
 237:Core/Src/stm32f1xx_it.c ****   * @brief This function handles TIM6 global interrupt.
 238:Core/Src/stm32f1xx_it.c ****   */
 239:Core/Src/stm32f1xx_it.c **** void TIM6_IRQHandler(void)
 240:Core/Src/stm32f1xx_it.c **** {
 218              		.loc 1 240 1 view -0
 219              		.cfi_startproc
 220              		@ args = 0, pretend = 0, frame = 0
 221              		@ frame_needed = 0, uses_anonymous_args = 0
 222 0000 08B5     		push	{r3, lr}
 223              	.LCFI0:
 224              		.cfi_def_cfa_offset 8
 225              		.cfi_offset 3, -8
 226              		.cfi_offset 14, -4
 241:Core/Src/stm32f1xx_it.c ****   /* USER CODE BEGIN TIM6_IRQn 0 */
 242:Core/Src/stm32f1xx_it.c **** 
 243:Core/Src/stm32f1xx_it.c ****   /* USER CODE END TIM6_IRQn 0 */
 244:Core/Src/stm32f1xx_it.c ****   HAL_TIM_IRQHandler(&htim6);
ARM GAS  C:\Users\BaiJiang\AppData\Local\Temp\cccWzF1j.s 			page 9


 227              		.loc 1 244 3 view .LVU29
 228 0002 0248     		ldr	r0, .L17
 229 0004 FFF7FEFF 		bl	HAL_TIM_IRQHandler
 230              	.LVL0:
 245:Core/Src/stm32f1xx_it.c ****   /* USER CODE BEGIN TIM6_IRQn 1 */
 246:Core/Src/stm32f1xx_it.c **** 
 247:Core/Src/stm32f1xx_it.c ****   /* USER CODE END TIM6_IRQn 1 */
 248:Core/Src/stm32f1xx_it.c **** }
 231              		.loc 1 248 1 is_stmt 0 view .LVU30
 232 0008 08BD     		pop	{r3, pc}
 233              	.L18:
 234 000a 00BF     		.align	2
 235              	.L17:
 236 000c 00000000 		.word	htim6
 237              		.cfi_endproc
 238              	.LFE74:
 240              		.section	.text.TIM7_IRQHandler,"ax",%progbits
 241              		.align	1
 242              		.global	TIM7_IRQHandler
 243              		.syntax unified
 244              		.thumb
 245              		.thumb_func
 247              	TIM7_IRQHandler:
 248              	.LFB75:
 249:Core/Src/stm32f1xx_it.c **** 
 250:Core/Src/stm32f1xx_it.c **** /**
 251:Core/Src/stm32f1xx_it.c ****   * @brief This function handles TIM7 global interrupt.
 252:Core/Src/stm32f1xx_it.c ****   */
 253:Core/Src/stm32f1xx_it.c **** void TIM7_IRQHandler(void)
 254:Core/Src/stm32f1xx_it.c **** {
 249              		.loc 1 254 1 is_stmt 1 view -0
 250              		.cfi_startproc
 251              		@ args = 0, pretend = 0, frame = 0
 252              		@ frame_needed = 0, uses_anonymous_args = 0
 253 0000 38B5     		push	{r3, r4, r5, lr}
 254              	.LCFI1:
 255              		.cfi_def_cfa_offset 16
 256              		.cfi_offset 3, -16
 257              		.cfi_offset 4, -12
 258              		.cfi_offset 5, -8
 259              		.cfi_offset 14, -4
 255:Core/Src/stm32f1xx_it.c ****   /* USER CODE BEGIN TIM7_IRQn 0 */
 256:Core/Src/stm32f1xx_it.c **** 
 257:Core/Src/stm32f1xx_it.c ****   /* USER CODE END TIM7_IRQn 0 */
 258:Core/Src/stm32f1xx_it.c ****   HAL_TIM_IRQHandler(&htim7);
 260              		.loc 1 258 3 view .LVU32
 261 0002 1B48     		ldr	r0, .L25
 262 0004 FFF7FEFF 		bl	HAL_TIM_IRQHandler
 263              	.LVL1:
 259:Core/Src/stm32f1xx_it.c ****   /* USER CODE BEGIN TIM7_IRQn 1 */
 260:Core/Src/stm32f1xx_it.c ****  static uint16_t a = 0;
 264              		.loc 1 260 2 view .LVU33
 261:Core/Src/stm32f1xx_it.c ****   if(a++>= 3)
 265              		.loc 1 261 3 view .LVU34
 266              		.loc 1 261 7 is_stmt 0 view .LVU35
 267 0008 1A4A     		ldr	r2, .L25+4
 268 000a 1388     		ldrh	r3, [r2]
ARM GAS  C:\Users\BaiJiang\AppData\Local\Temp\cccWzF1j.s 			page 10


 269 000c 591C     		adds	r1, r3, #1
 270 000e 1180     		strh	r1, [r2]	@ movhi
 271              		.loc 1 261 5 view .LVU36
 272 0010 022B     		cmp	r3, #2
 273 0012 06D8     		bhi	.L24
 274              	.L20:
 262:Core/Src/stm32f1xx_it.c ****   {
 263:Core/Src/stm32f1xx_it.c ****   a = 0;
 264:Core/Src/stm32f1xx_it.c ****   key_handler.KEY_VALUE[0] &= 0XFC; 
 265:Core/Src/stm32f1xx_it.c ****   key_handler.KEY_VALUE[0] |= (HAL_GPIO_ReadPin(GPIOE,GPIO_PIN_3)?0X01:0X00);
 266:Core/Src/stm32f1xx_it.c ****   key_handler.KEY_VALUE[0] |= ((HAL_GPIO_ReadPin(GPIOE,GPIO_PIN_4)?0X01:0X00)<<1);
 267:Core/Src/stm32f1xx_it.c ****   KEY_SCAN(&key_handler,2);
 268:Core/Src/stm32f1xx_it.c ****   }
 269:Core/Src/stm32f1xx_it.c ****   hid_write_ep(0,report1,20,0x81);//XBOX KEY
 275              		.loc 1 269 3 is_stmt 1 view .LVU37
 276 0014 8123     		movs	r3, #129
 277 0016 1422     		movs	r2, #20
 278 0018 1749     		ldr	r1, .L25+8
 279 001a 0020     		movs	r0, #0
 280 001c FFF7FEFF 		bl	hid_write_ep
 281              	.LVL2:
 270:Core/Src/stm32f1xx_it.c ****   /* USER CODE END TIM7_IRQn 1 */
 271:Core/Src/stm32f1xx_it.c **** }
 282              		.loc 1 271 1 is_stmt 0 view .LVU38
 283 0020 38BD     		pop	{r3, r4, r5, pc}
 284              	.L24:
 263:Core/Src/stm32f1xx_it.c ****   key_handler.KEY_VALUE[0] &= 0XFC; 
 285              		.loc 1 263 3 is_stmt 1 view .LVU39
 263:Core/Src/stm32f1xx_it.c ****   key_handler.KEY_VALUE[0] &= 0XFC; 
 286              		.loc 1 263 5 is_stmt 0 view .LVU40
 287 0022 1346     		mov	r3, r2
 288 0024 0022     		movs	r2, #0
 289 0026 1A80     		strh	r2, [r3]	@ movhi
 264:Core/Src/stm32f1xx_it.c ****   key_handler.KEY_VALUE[0] |= (HAL_GPIO_ReadPin(GPIOE,GPIO_PIN_3)?0X01:0X00);
 290              		.loc 1 264 3 is_stmt 1 view .LVU41
 264:Core/Src/stm32f1xx_it.c ****   key_handler.KEY_VALUE[0] |= (HAL_GPIO_ReadPin(GPIOE,GPIO_PIN_3)?0X01:0X00);
 291              		.loc 1 264 14 is_stmt 0 view .LVU42
 292 0028 144D     		ldr	r5, .L25+12
 293 002a 2A68     		ldr	r2, [r5]
 264:Core/Src/stm32f1xx_it.c ****   key_handler.KEY_VALUE[0] |= (HAL_GPIO_ReadPin(GPIOE,GPIO_PIN_3)?0X01:0X00);
 294              		.loc 1 264 24 view .LVU43
 295 002c 1378     		ldrb	r3, [r2]	@ zero_extendqisi2
 264:Core/Src/stm32f1xx_it.c ****   key_handler.KEY_VALUE[0] |= (HAL_GPIO_ReadPin(GPIOE,GPIO_PIN_3)?0X01:0X00);
 296              		.loc 1 264 28 view .LVU44
 297 002e 23F00303 		bic	r3, r3, #3
 298 0032 1370     		strb	r3, [r2]
 265:Core/Src/stm32f1xx_it.c ****   key_handler.KEY_VALUE[0] |= ((HAL_GPIO_ReadPin(GPIOE,GPIO_PIN_4)?0X01:0X00)<<1);
 299              		.loc 1 265 3 is_stmt 1 view .LVU45
 265:Core/Src/stm32f1xx_it.c ****   key_handler.KEY_VALUE[0] |= ((HAL_GPIO_ReadPin(GPIOE,GPIO_PIN_4)?0X01:0X00)<<1);
 300              		.loc 1 265 32 is_stmt 0 view .LVU46
 301 0034 124C     		ldr	r4, .L25+16
 302 0036 0821     		movs	r1, #8
 303 0038 2046     		mov	r0, r4
 304 003a FFF7FEFF 		bl	HAL_GPIO_ReadPin
 305              	.LVL3:
 265:Core/Src/stm32f1xx_it.c ****   key_handler.KEY_VALUE[0] |= ((HAL_GPIO_ReadPin(GPIOE,GPIO_PIN_4)?0X01:0X00)<<1);
 306              		.loc 1 265 14 discriminator 1 view .LVU47
ARM GAS  C:\Users\BaiJiang\AppData\Local\Temp\cccWzF1j.s 			page 11


 307 003e 2A68     		ldr	r2, [r5]
 265:Core/Src/stm32f1xx_it.c ****   key_handler.KEY_VALUE[0] |= ((HAL_GPIO_ReadPin(GPIOE,GPIO_PIN_4)?0X01:0X00)<<1);
 308              		.loc 1 265 24 discriminator 1 view .LVU48
 309 0040 1378     		ldrb	r3, [r2]	@ zero_extendqisi2
 265:Core/Src/stm32f1xx_it.c ****   key_handler.KEY_VALUE[0] |= ((HAL_GPIO_ReadPin(GPIOE,GPIO_PIN_4)?0X01:0X00)<<1);
 310              		.loc 1 265 28 discriminator 1 view .LVU49
 311 0042 0028     		cmp	r0, #0
 312 0044 18BF     		it	ne
 313 0046 43F00103 		orrne	r3, r3, #1
 314 004a 1370     		strb	r3, [r2]
 266:Core/Src/stm32f1xx_it.c ****   KEY_SCAN(&key_handler,2);
 315              		.loc 1 266 3 is_stmt 1 view .LVU50
 266:Core/Src/stm32f1xx_it.c ****   KEY_SCAN(&key_handler,2);
 316              		.loc 1 266 33 is_stmt 0 view .LVU51
 317 004c 1021     		movs	r1, #16
 318 004e 2046     		mov	r0, r4
 319 0050 FFF7FEFF 		bl	HAL_GPIO_ReadPin
 320              	.LVL4:
 266:Core/Src/stm32f1xx_it.c ****   KEY_SCAN(&key_handler,2);
 321              		.loc 1 266 78 discriminator 1 view .LVU52
 322 0054 48B1     		cbz	r0, .L22
 323 0056 0221     		movs	r1, #2
 324              	.L21:
 266:Core/Src/stm32f1xx_it.c ****   KEY_SCAN(&key_handler,2);
 325              		.loc 1 266 14 discriminator 4 view .LVU53
 326 0058 0848     		ldr	r0, .L25+12
 327 005a 0268     		ldr	r2, [r0]
 266:Core/Src/stm32f1xx_it.c ****   KEY_SCAN(&key_handler,2);
 328              		.loc 1 266 24 discriminator 4 view .LVU54
 329 005c 1378     		ldrb	r3, [r2]	@ zero_extendqisi2
 266:Core/Src/stm32f1xx_it.c ****   KEY_SCAN(&key_handler,2);
 330              		.loc 1 266 28 discriminator 4 view .LVU55
 331 005e 0B43     		orrs	r3, r3, r1
 332 0060 1370     		strb	r3, [r2]
 267:Core/Src/stm32f1xx_it.c ****   }
 333              		.loc 1 267 3 is_stmt 1 view .LVU56
 334 0062 0221     		movs	r1, #2
 335 0064 FFF7FEFF 		bl	KEY_SCAN
 336              	.LVL5:
 337 0068 D4E7     		b	.L20
 338              	.L22:
 266:Core/Src/stm32f1xx_it.c ****   KEY_SCAN(&key_handler,2);
 339              		.loc 1 266 78 is_stmt 0 discriminator 2 view .LVU57
 340 006a 0021     		movs	r1, #0
 341 006c F4E7     		b	.L21
 342              	.L26:
 343 006e 00BF     		.align	2
 344              	.L25:
 345 0070 00000000 		.word	htim7
 346 0074 00000000 		.word	a.0
 347 0078 00000000 		.word	report1
 348 007c 00000000 		.word	key_handler
 349 0080 00180140 		.word	1073813504
 350              		.cfi_endproc
 351              	.LFE75:
 353              		.section	.bss.a.0,"aw",%nobits
 354              		.align	1
ARM GAS  C:\Users\BaiJiang\AppData\Local\Temp\cccWzF1j.s 			page 12


 357              	a.0:
 358 0000 0000     		.space	2
 359              		.text
 360              	.Letext0:
 361              		.file 2 "D:/GCC/xpack-arm-none-eabi-gcc-13.2.1-1.1/arm-none-eabi/include/machine/_default_types.h"
 362              		.file 3 "D:/GCC/xpack-arm-none-eabi-gcc-13.2.1-1.1/arm-none-eabi/include/sys/_stdint.h"
 363              		.file 4 "Drivers/CMSIS/Device/ST/STM32F1xx/Include/stm32f103xe.h"
 364              		.file 5 "Drivers/STM32F1xx_HAL_Driver/Inc/stm32f1xx_hal_def.h"
 365              		.file 6 "Drivers/STM32F1xx_HAL_Driver/Inc/stm32f1xx_hal_gpio.h"
 366              		.file 7 "Drivers/STM32F1xx_HAL_Driver/Inc/stm32f1xx_hal_dma.h"
 367              		.file 8 "Drivers/STM32F1xx_HAL_Driver/Inc/stm32f1xx_hal_tim.h"
 368              		.file 9 "USER/BSP/KEY.h"
ARM GAS  C:\Users\BaiJiang\AppData\Local\Temp\cccWzF1j.s 			page 13

