ARM GAS  C:\Users\BaiJiang\AppData\Local\Temp\ccRXUetp.s 			page 1


   1              		.cpu cortex-m3
   2              		.arch armv7-m
   3              		.fpu softvfp
   4              		.eabi_attribute 20, 1
   5              		.eabi_attribute 21, 1
   6              		.eabi_attribute 23, 3
   7              		.eabi_attribute 24, 1
   8              		.eabi_attribute 25, 1
   9              		.eabi_attribute 26, 1
  10              		.eabi_attribute 30, 1
  11              		.eabi_attribute 34, 1
  12              		.eabi_attribute 18, 4
  13              		.file	"usbd_customhid.c"
  14              		.text
  15              	.Ltext0:
  16              		.cfi_sections	.debug_frame
  17              		.file 1 "Middlewares/ST/STM32_USB_Device_Library/Class/CustomHID/Src/usbd_customhid.c"
  18              		.section	.text.USBD_CUSTOM_HID_GetFSCfgDesc,"ax",%progbits
  19              		.align	1
  20              		.syntax unified
  21              		.thumb
  22              		.thumb_func
  24              	USBD_CUSTOM_HID_GetFSCfgDesc:
  25              	.LVL0:
  26              	.LFB73:
   1:Middlewares/ST/STM32_USB_Device_Library/Class/CustomHID/Src/usbd_customhid.c **** /**
   2:Middlewares/ST/STM32_USB_Device_Library/Class/CustomHID/Src/usbd_customhid.c ****   ******************************************************************************
   3:Middlewares/ST/STM32_USB_Device_Library/Class/CustomHID/Src/usbd_customhid.c ****   * @file    usbd_customhid.c
   4:Middlewares/ST/STM32_USB_Device_Library/Class/CustomHID/Src/usbd_customhid.c ****   * @author  MCD Application Team
   5:Middlewares/ST/STM32_USB_Device_Library/Class/CustomHID/Src/usbd_customhid.c ****   * @brief   This file provides the CUSTOM_HID core functions.
   6:Middlewares/ST/STM32_USB_Device_Library/Class/CustomHID/Src/usbd_customhid.c ****   *
   7:Middlewares/ST/STM32_USB_Device_Library/Class/CustomHID/Src/usbd_customhid.c ****   * @verbatim
   8:Middlewares/ST/STM32_USB_Device_Library/Class/CustomHID/Src/usbd_customhid.c ****   *
   9:Middlewares/ST/STM32_USB_Device_Library/Class/CustomHID/Src/usbd_customhid.c ****   *          ===================================================================
  10:Middlewares/ST/STM32_USB_Device_Library/Class/CustomHID/Src/usbd_customhid.c ****   *                                CUSTOM_HID Class  Description
  11:Middlewares/ST/STM32_USB_Device_Library/Class/CustomHID/Src/usbd_customhid.c ****   *          ===================================================================
  12:Middlewares/ST/STM32_USB_Device_Library/Class/CustomHID/Src/usbd_customhid.c ****   *           This module manages the CUSTOM_HID class V1.11 following the "Device Class Definition
  13:Middlewares/ST/STM32_USB_Device_Library/Class/CustomHID/Src/usbd_customhid.c ****   *           for Human Interface Devices (CUSTOM_HID) Version 1.11 Jun 27, 2001".
  14:Middlewares/ST/STM32_USB_Device_Library/Class/CustomHID/Src/usbd_customhid.c ****   *           This driver implements the following aspects of the specification:
  15:Middlewares/ST/STM32_USB_Device_Library/Class/CustomHID/Src/usbd_customhid.c ****   *             - The Boot Interface Subclass
  16:Middlewares/ST/STM32_USB_Device_Library/Class/CustomHID/Src/usbd_customhid.c ****   *             - Usage Page : Generic Desktop
  17:Middlewares/ST/STM32_USB_Device_Library/Class/CustomHID/Src/usbd_customhid.c ****   *             - Usage : Vendor
  18:Middlewares/ST/STM32_USB_Device_Library/Class/CustomHID/Src/usbd_customhid.c ****   *             - Collection : Application
  19:Middlewares/ST/STM32_USB_Device_Library/Class/CustomHID/Src/usbd_customhid.c ****   *
  20:Middlewares/ST/STM32_USB_Device_Library/Class/CustomHID/Src/usbd_customhid.c ****   * @note     In HS mode and when the DMA is used, all variables and data structures
  21:Middlewares/ST/STM32_USB_Device_Library/Class/CustomHID/Src/usbd_customhid.c ****   *           dealing with the DMA during the transaction process should be 32-bit aligned.
  22:Middlewares/ST/STM32_USB_Device_Library/Class/CustomHID/Src/usbd_customhid.c ****   *
  23:Middlewares/ST/STM32_USB_Device_Library/Class/CustomHID/Src/usbd_customhid.c ****   *
  24:Middlewares/ST/STM32_USB_Device_Library/Class/CustomHID/Src/usbd_customhid.c ****   *  @endverbatim
  25:Middlewares/ST/STM32_USB_Device_Library/Class/CustomHID/Src/usbd_customhid.c ****   *
  26:Middlewares/ST/STM32_USB_Device_Library/Class/CustomHID/Src/usbd_customhid.c ****   ******************************************************************************
  27:Middlewares/ST/STM32_USB_Device_Library/Class/CustomHID/Src/usbd_customhid.c ****   * @attention
  28:Middlewares/ST/STM32_USB_Device_Library/Class/CustomHID/Src/usbd_customhid.c ****   *
  29:Middlewares/ST/STM32_USB_Device_Library/Class/CustomHID/Src/usbd_customhid.c ****   * <h2><center>&copy; Copyright (c) 2015 STMicroelectronics.
  30:Middlewares/ST/STM32_USB_Device_Library/Class/CustomHID/Src/usbd_customhid.c ****   * All rights reserved.</center></h2>
  31:Middlewares/ST/STM32_USB_Device_Library/Class/CustomHID/Src/usbd_customhid.c ****   *
  32:Middlewares/ST/STM32_USB_Device_Library/Class/CustomHID/Src/usbd_customhid.c ****   * This software component is licensed by ST under Ultimate Liberty license
ARM GAS  C:\Users\BaiJiang\AppData\Local\Temp\ccRXUetp.s 			page 2


  33:Middlewares/ST/STM32_USB_Device_Library/Class/CustomHID/Src/usbd_customhid.c ****   * SLA0044, the "License"; You may not use this file except in compliance with
  34:Middlewares/ST/STM32_USB_Device_Library/Class/CustomHID/Src/usbd_customhid.c ****   * the License. You may obtain a copy of the License at:
  35:Middlewares/ST/STM32_USB_Device_Library/Class/CustomHID/Src/usbd_customhid.c ****   *                      www.st.com/SLA0044
  36:Middlewares/ST/STM32_USB_Device_Library/Class/CustomHID/Src/usbd_customhid.c ****   *
  37:Middlewares/ST/STM32_USB_Device_Library/Class/CustomHID/Src/usbd_customhid.c ****   ******************************************************************************
  38:Middlewares/ST/STM32_USB_Device_Library/Class/CustomHID/Src/usbd_customhid.c ****   */
  39:Middlewares/ST/STM32_USB_Device_Library/Class/CustomHID/Src/usbd_customhid.c **** 
  40:Middlewares/ST/STM32_USB_Device_Library/Class/CustomHID/Src/usbd_customhid.c **** /* BSPDependencies
  41:Middlewares/ST/STM32_USB_Device_Library/Class/CustomHID/Src/usbd_customhid.c **** - "stm32xxxxx_{eval}{discovery}{nucleo_144}.c"
  42:Middlewares/ST/STM32_USB_Device_Library/Class/CustomHID/Src/usbd_customhid.c **** - "stm32xxxxx_{eval}{discovery}_io.c"
  43:Middlewares/ST/STM32_USB_Device_Library/Class/CustomHID/Src/usbd_customhid.c **** EndBSPDependencies */
  44:Middlewares/ST/STM32_USB_Device_Library/Class/CustomHID/Src/usbd_customhid.c **** 
  45:Middlewares/ST/STM32_USB_Device_Library/Class/CustomHID/Src/usbd_customhid.c **** /* Includes ------------------------------------------------------------------*/
  46:Middlewares/ST/STM32_USB_Device_Library/Class/CustomHID/Src/usbd_customhid.c **** #include "usbd_customhid.h"
  47:Middlewares/ST/STM32_USB_Device_Library/Class/CustomHID/Src/usbd_customhid.c **** #include "usbd_ctlreq.h"
  48:Middlewares/ST/STM32_USB_Device_Library/Class/CustomHID/Src/usbd_customhid.c **** 
  49:Middlewares/ST/STM32_USB_Device_Library/Class/CustomHID/Src/usbd_customhid.c **** 
  50:Middlewares/ST/STM32_USB_Device_Library/Class/CustomHID/Src/usbd_customhid.c **** /** @addtogroup STM32_USB_DEVICE_LIBRARY
  51:Middlewares/ST/STM32_USB_Device_Library/Class/CustomHID/Src/usbd_customhid.c ****   * @{
  52:Middlewares/ST/STM32_USB_Device_Library/Class/CustomHID/Src/usbd_customhid.c ****   */
  53:Middlewares/ST/STM32_USB_Device_Library/Class/CustomHID/Src/usbd_customhid.c **** 
  54:Middlewares/ST/STM32_USB_Device_Library/Class/CustomHID/Src/usbd_customhid.c **** 
  55:Middlewares/ST/STM32_USB_Device_Library/Class/CustomHID/Src/usbd_customhid.c **** /** @defgroup USBD_CUSTOM_HID
  56:Middlewares/ST/STM32_USB_Device_Library/Class/CustomHID/Src/usbd_customhid.c ****   * @brief usbd core module
  57:Middlewares/ST/STM32_USB_Device_Library/Class/CustomHID/Src/usbd_customhid.c ****   * @{
  58:Middlewares/ST/STM32_USB_Device_Library/Class/CustomHID/Src/usbd_customhid.c ****   */
  59:Middlewares/ST/STM32_USB_Device_Library/Class/CustomHID/Src/usbd_customhid.c **** 
  60:Middlewares/ST/STM32_USB_Device_Library/Class/CustomHID/Src/usbd_customhid.c **** /** @defgroup USBD_CUSTOM_HID_Private_TypesDefinitions
  61:Middlewares/ST/STM32_USB_Device_Library/Class/CustomHID/Src/usbd_customhid.c ****   * @{
  62:Middlewares/ST/STM32_USB_Device_Library/Class/CustomHID/Src/usbd_customhid.c ****   */
  63:Middlewares/ST/STM32_USB_Device_Library/Class/CustomHID/Src/usbd_customhid.c **** /**
  64:Middlewares/ST/STM32_USB_Device_Library/Class/CustomHID/Src/usbd_customhid.c ****   * @}
  65:Middlewares/ST/STM32_USB_Device_Library/Class/CustomHID/Src/usbd_customhid.c ****   */
  66:Middlewares/ST/STM32_USB_Device_Library/Class/CustomHID/Src/usbd_customhid.c **** 
  67:Middlewares/ST/STM32_USB_Device_Library/Class/CustomHID/Src/usbd_customhid.c **** 
  68:Middlewares/ST/STM32_USB_Device_Library/Class/CustomHID/Src/usbd_customhid.c **** /** @defgroup USBD_CUSTOM_HID_Private_Defines
  69:Middlewares/ST/STM32_USB_Device_Library/Class/CustomHID/Src/usbd_customhid.c ****   * @{
  70:Middlewares/ST/STM32_USB_Device_Library/Class/CustomHID/Src/usbd_customhid.c ****   */
  71:Middlewares/ST/STM32_USB_Device_Library/Class/CustomHID/Src/usbd_customhid.c **** 
  72:Middlewares/ST/STM32_USB_Device_Library/Class/CustomHID/Src/usbd_customhid.c **** /**
  73:Middlewares/ST/STM32_USB_Device_Library/Class/CustomHID/Src/usbd_customhid.c ****   * @}
  74:Middlewares/ST/STM32_USB_Device_Library/Class/CustomHID/Src/usbd_customhid.c ****   */
  75:Middlewares/ST/STM32_USB_Device_Library/Class/CustomHID/Src/usbd_customhid.c **** 
  76:Middlewares/ST/STM32_USB_Device_Library/Class/CustomHID/Src/usbd_customhid.c **** 
  77:Middlewares/ST/STM32_USB_Device_Library/Class/CustomHID/Src/usbd_customhid.c **** /** @defgroup USBD_CUSTOM_HID_Private_Macros
  78:Middlewares/ST/STM32_USB_Device_Library/Class/CustomHID/Src/usbd_customhid.c ****   * @{
  79:Middlewares/ST/STM32_USB_Device_Library/Class/CustomHID/Src/usbd_customhid.c ****   */
  80:Middlewares/ST/STM32_USB_Device_Library/Class/CustomHID/Src/usbd_customhid.c **** /**
  81:Middlewares/ST/STM32_USB_Device_Library/Class/CustomHID/Src/usbd_customhid.c ****   * @}
  82:Middlewares/ST/STM32_USB_Device_Library/Class/CustomHID/Src/usbd_customhid.c ****   */
  83:Middlewares/ST/STM32_USB_Device_Library/Class/CustomHID/Src/usbd_customhid.c **** /** @defgroup USBD_CUSTOM_HID_Private_FunctionPrototypes
  84:Middlewares/ST/STM32_USB_Device_Library/Class/CustomHID/Src/usbd_customhid.c ****   * @{
  85:Middlewares/ST/STM32_USB_Device_Library/Class/CustomHID/Src/usbd_customhid.c ****   */
  86:Middlewares/ST/STM32_USB_Device_Library/Class/CustomHID/Src/usbd_customhid.c **** 
  87:Middlewares/ST/STM32_USB_Device_Library/Class/CustomHID/Src/usbd_customhid.c **** 
  88:Middlewares/ST/STM32_USB_Device_Library/Class/CustomHID/Src/usbd_customhid.c **** static uint8_t  USBD_CUSTOM_HID_Init(USBD_HandleTypeDef *pdev,
  89:Middlewares/ST/STM32_USB_Device_Library/Class/CustomHID/Src/usbd_customhid.c ****                                      uint8_t cfgidx);
ARM GAS  C:\Users\BaiJiang\AppData\Local\Temp\ccRXUetp.s 			page 3


  90:Middlewares/ST/STM32_USB_Device_Library/Class/CustomHID/Src/usbd_customhid.c **** 
  91:Middlewares/ST/STM32_USB_Device_Library/Class/CustomHID/Src/usbd_customhid.c **** static uint8_t  USBD_CUSTOM_HID_DeInit(USBD_HandleTypeDef *pdev,
  92:Middlewares/ST/STM32_USB_Device_Library/Class/CustomHID/Src/usbd_customhid.c ****                                        uint8_t cfgidx);
  93:Middlewares/ST/STM32_USB_Device_Library/Class/CustomHID/Src/usbd_customhid.c **** 
  94:Middlewares/ST/STM32_USB_Device_Library/Class/CustomHID/Src/usbd_customhid.c **** static uint8_t  USBD_CUSTOM_HID_Setup(USBD_HandleTypeDef *pdev,
  95:Middlewares/ST/STM32_USB_Device_Library/Class/CustomHID/Src/usbd_customhid.c ****                                       USBD_SetupReqTypedef *req);
  96:Middlewares/ST/STM32_USB_Device_Library/Class/CustomHID/Src/usbd_customhid.c **** 
  97:Middlewares/ST/STM32_USB_Device_Library/Class/CustomHID/Src/usbd_customhid.c **** static uint8_t  *USBD_CUSTOM_HID_GetFSCfgDesc(uint16_t *length);
  98:Middlewares/ST/STM32_USB_Device_Library/Class/CustomHID/Src/usbd_customhid.c **** 
  99:Middlewares/ST/STM32_USB_Device_Library/Class/CustomHID/Src/usbd_customhid.c **** static uint8_t  *USBD_CUSTOM_HID_GetHSCfgDesc(uint16_t *length);
 100:Middlewares/ST/STM32_USB_Device_Library/Class/CustomHID/Src/usbd_customhid.c **** 
 101:Middlewares/ST/STM32_USB_Device_Library/Class/CustomHID/Src/usbd_customhid.c **** static uint8_t  *USBD_CUSTOM_HID_GetOtherSpeedCfgDesc(uint16_t *length);
 102:Middlewares/ST/STM32_USB_Device_Library/Class/CustomHID/Src/usbd_customhid.c **** 
 103:Middlewares/ST/STM32_USB_Device_Library/Class/CustomHID/Src/usbd_customhid.c **** static uint8_t  *USBD_CUSTOM_HID_GetDeviceQualifierDesc(uint16_t *length);
 104:Middlewares/ST/STM32_USB_Device_Library/Class/CustomHID/Src/usbd_customhid.c **** 
 105:Middlewares/ST/STM32_USB_Device_Library/Class/CustomHID/Src/usbd_customhid.c **** static uint8_t  USBD_CUSTOM_HID_DataIn(USBD_HandleTypeDef *pdev, uint8_t epnum);
 106:Middlewares/ST/STM32_USB_Device_Library/Class/CustomHID/Src/usbd_customhid.c **** 
 107:Middlewares/ST/STM32_USB_Device_Library/Class/CustomHID/Src/usbd_customhid.c **** static uint8_t  USBD_CUSTOM_HID_DataOut(USBD_HandleTypeDef *pdev, uint8_t epnum);
 108:Middlewares/ST/STM32_USB_Device_Library/Class/CustomHID/Src/usbd_customhid.c **** static uint8_t  USBD_CUSTOM_HID_EP0_RxReady(USBD_HandleTypeDef  *pdev);
 109:Middlewares/ST/STM32_USB_Device_Library/Class/CustomHID/Src/usbd_customhid.c **** /**
 110:Middlewares/ST/STM32_USB_Device_Library/Class/CustomHID/Src/usbd_customhid.c ****   * @}
 111:Middlewares/ST/STM32_USB_Device_Library/Class/CustomHID/Src/usbd_customhid.c ****   */
 112:Middlewares/ST/STM32_USB_Device_Library/Class/CustomHID/Src/usbd_customhid.c **** 
 113:Middlewares/ST/STM32_USB_Device_Library/Class/CustomHID/Src/usbd_customhid.c **** /** @defgroup USBD_CUSTOM_HID_Private_Variables
 114:Middlewares/ST/STM32_USB_Device_Library/Class/CustomHID/Src/usbd_customhid.c ****   * @{
 115:Middlewares/ST/STM32_USB_Device_Library/Class/CustomHID/Src/usbd_customhid.c ****   */
 116:Middlewares/ST/STM32_USB_Device_Library/Class/CustomHID/Src/usbd_customhid.c **** 
 117:Middlewares/ST/STM32_USB_Device_Library/Class/CustomHID/Src/usbd_customhid.c **** USBD_ClassTypeDef  USBD_CUSTOM_HID =
 118:Middlewares/ST/STM32_USB_Device_Library/Class/CustomHID/Src/usbd_customhid.c **** {
 119:Middlewares/ST/STM32_USB_Device_Library/Class/CustomHID/Src/usbd_customhid.c ****   USBD_CUSTOM_HID_Init,
 120:Middlewares/ST/STM32_USB_Device_Library/Class/CustomHID/Src/usbd_customhid.c ****   USBD_CUSTOM_HID_DeInit,
 121:Middlewares/ST/STM32_USB_Device_Library/Class/CustomHID/Src/usbd_customhid.c ****   USBD_CUSTOM_HID_Setup,
 122:Middlewares/ST/STM32_USB_Device_Library/Class/CustomHID/Src/usbd_customhid.c ****   NULL, /*EP0_TxSent*/
 123:Middlewares/ST/STM32_USB_Device_Library/Class/CustomHID/Src/usbd_customhid.c ****   USBD_CUSTOM_HID_EP0_RxReady, /*EP0_RxReady*/ /* STATUS STAGE IN */
 124:Middlewares/ST/STM32_USB_Device_Library/Class/CustomHID/Src/usbd_customhid.c ****   USBD_CUSTOM_HID_DataIn, /*DataIn*/
 125:Middlewares/ST/STM32_USB_Device_Library/Class/CustomHID/Src/usbd_customhid.c ****   USBD_CUSTOM_HID_DataOut,
 126:Middlewares/ST/STM32_USB_Device_Library/Class/CustomHID/Src/usbd_customhid.c ****   NULL, /*SOF */
 127:Middlewares/ST/STM32_USB_Device_Library/Class/CustomHID/Src/usbd_customhid.c ****   NULL,
 128:Middlewares/ST/STM32_USB_Device_Library/Class/CustomHID/Src/usbd_customhid.c ****   NULL,
 129:Middlewares/ST/STM32_USB_Device_Library/Class/CustomHID/Src/usbd_customhid.c ****   USBD_CUSTOM_HID_GetHSCfgDesc,
 130:Middlewares/ST/STM32_USB_Device_Library/Class/CustomHID/Src/usbd_customhid.c ****   USBD_CUSTOM_HID_GetFSCfgDesc,
 131:Middlewares/ST/STM32_USB_Device_Library/Class/CustomHID/Src/usbd_customhid.c ****   USBD_CUSTOM_HID_GetOtherSpeedCfgDesc,
 132:Middlewares/ST/STM32_USB_Device_Library/Class/CustomHID/Src/usbd_customhid.c ****   USBD_CUSTOM_HID_GetDeviceQualifierDesc,
 133:Middlewares/ST/STM32_USB_Device_Library/Class/CustomHID/Src/usbd_customhid.c **** };
 134:Middlewares/ST/STM32_USB_Device_Library/Class/CustomHID/Src/usbd_customhid.c **** 
 135:Middlewares/ST/STM32_USB_Device_Library/Class/CustomHID/Src/usbd_customhid.c **** /* USB CUSTOM_HID device FS Configuration Descriptor */
 136:Middlewares/ST/STM32_USB_Device_Library/Class/CustomHID/Src/usbd_customhid.c **** __ALIGN_BEGIN static uint8_t USBD_CUSTOM_HID_CfgFSDesc[USB_CUSTOM_HID_CONFIG_DESC_SIZ] __ALIGN_END 
 137:Middlewares/ST/STM32_USB_Device_Library/Class/CustomHID/Src/usbd_customhid.c **** {
 138:Middlewares/ST/STM32_USB_Device_Library/Class/CustomHID/Src/usbd_customhid.c ****     /************** Configuration Descriptor 1 Bus Powered, 500 mA ****************/
 139:Middlewares/ST/STM32_USB_Device_Library/Class/CustomHID/Src/usbd_customhid.c ****  
 140:Middlewares/ST/STM32_USB_Device_Library/Class/CustomHID/Src/usbd_customhid.c ****     0x09, /* bLength: Configuration Descriptor size */
 141:Middlewares/ST/STM32_USB_Device_Library/Class/CustomHID/Src/usbd_customhid.c ****  
 142:Middlewares/ST/STM32_USB_Device_Library/Class/CustomHID/Src/usbd_customhid.c ****     USB_DESC_TYPE_CONFIGURATION, /* bDescriptorType: Configuration */
 143:Middlewares/ST/STM32_USB_Device_Library/Class/CustomHID/Src/usbd_customhid.c ****  
 144:Middlewares/ST/STM32_USB_Device_Library/Class/CustomHID/Src/usbd_customhid.c ****     USB_CUSTOM_HID_CONFIG_DESC_SIZ,
 145:Middlewares/ST/STM32_USB_Device_Library/Class/CustomHID/Src/usbd_customhid.c ****  
 146:Middlewares/ST/STM32_USB_Device_Library/Class/CustomHID/Src/usbd_customhid.c ****     /* wTotalLength: Bytes returned */
ARM GAS  C:\Users\BaiJiang\AppData\Local\Temp\ccRXUetp.s 			page 4


 147:Middlewares/ST/STM32_USB_Device_Library/Class/CustomHID/Src/usbd_customhid.c ****  
 148:Middlewares/ST/STM32_USB_Device_Library/Class/CustomHID/Src/usbd_customhid.c ****     0x00,
 149:Middlewares/ST/STM32_USB_Device_Library/Class/CustomHID/Src/usbd_customhid.c ****  
 150:Middlewares/ST/STM32_USB_Device_Library/Class/CustomHID/Src/usbd_customhid.c ****     0x04,         /*bNumInterfaces: 1 interface*/
 151:Middlewares/ST/STM32_USB_Device_Library/Class/CustomHID/Src/usbd_customhid.c ****  
 152:Middlewares/ST/STM32_USB_Device_Library/Class/CustomHID/Src/usbd_customhid.c ****     0x01,         /*bConfigurationValue: Configuration value*/
 153:Middlewares/ST/STM32_USB_Device_Library/Class/CustomHID/Src/usbd_customhid.c ****  
 154:Middlewares/ST/STM32_USB_Device_Library/Class/CustomHID/Src/usbd_customhid.c ****     0x00,         /*iConfiguration: Index of string descriptor describing
 155:Middlewares/ST/STM32_USB_Device_Library/Class/CustomHID/Src/usbd_customhid.c ****  
 156:Middlewares/ST/STM32_USB_Device_Library/Class/CustomHID/Src/usbd_customhid.c ****   the configuration*/
 157:Middlewares/ST/STM32_USB_Device_Library/Class/CustomHID/Src/usbd_customhid.c ****  
 158:Middlewares/ST/STM32_USB_Device_Library/Class/CustomHID/Src/usbd_customhid.c ****     0xA0,         /*bmAttributes: Bus Powered, Remote Wakeup*/
 159:Middlewares/ST/STM32_USB_Device_Library/Class/CustomHID/Src/usbd_customhid.c ****  
 160:Middlewares/ST/STM32_USB_Device_Library/Class/CustomHID/Src/usbd_customhid.c ****     0xFA,         /*MaxPower 500 mA: this current is used for detecting Vbus*/
 161:Middlewares/ST/STM32_USB_Device_Library/Class/CustomHID/Src/usbd_customhid.c ****  
 162:Middlewares/ST/STM32_USB_Device_Library/Class/CustomHID/Src/usbd_customhid.c ****  
 163:Middlewares/ST/STM32_USB_Device_Library/Class/CustomHID/Src/usbd_customhid.c ****  
 164:Middlewares/ST/STM32_USB_Device_Library/Class/CustomHID/Src/usbd_customhid.c ****     /**************Interface Descriptor 0/0 Vendor-Specific, 2 Endpoints****************/
 165:Middlewares/ST/STM32_USB_Device_Library/Class/CustomHID/Src/usbd_customhid.c ****  
 166:Middlewares/ST/STM32_USB_Device_Library/Class/CustomHID/Src/usbd_customhid.c ****     /* 09 */
 167:Middlewares/ST/STM32_USB_Device_Library/Class/CustomHID/Src/usbd_customhid.c ****  
 168:Middlewares/ST/STM32_USB_Device_Library/Class/CustomHID/Src/usbd_customhid.c ****     0x09,         /*bLength: Interface Descriptor size*/
 169:Middlewares/ST/STM32_USB_Device_Library/Class/CustomHID/Src/usbd_customhid.c ****  
 170:Middlewares/ST/STM32_USB_Device_Library/Class/CustomHID/Src/usbd_customhid.c ****     USB_DESC_TYPE_INTERFACE,/*bDescriptorType: Interface descriptor type*/
 171:Middlewares/ST/STM32_USB_Device_Library/Class/CustomHID/Src/usbd_customhid.c ****  
 172:Middlewares/ST/STM32_USB_Device_Library/Class/CustomHID/Src/usbd_customhid.c ****     0x00,         /*bInterfaceNumber: Number of Interface*/
 173:Middlewares/ST/STM32_USB_Device_Library/Class/CustomHID/Src/usbd_customhid.c ****  
 174:Middlewares/ST/STM32_USB_Device_Library/Class/CustomHID/Src/usbd_customhid.c ****     0x00,         /*bAlternateSetting: Alternate setting*/
 175:Middlewares/ST/STM32_USB_Device_Library/Class/CustomHID/Src/usbd_customhid.c ****  
 176:Middlewares/ST/STM32_USB_Device_Library/Class/CustomHID/Src/usbd_customhid.c ****     0x02,         /*bNumEndpoints*/
 177:Middlewares/ST/STM32_USB_Device_Library/Class/CustomHID/Src/usbd_customhid.c ****  
 178:Middlewares/ST/STM32_USB_Device_Library/Class/CustomHID/Src/usbd_customhid.c ****     0xFF,         /*Vendor-Specific*/
 179:Middlewares/ST/STM32_USB_Device_Library/Class/CustomHID/Src/usbd_customhid.c ****  
 180:Middlewares/ST/STM32_USB_Device_Library/Class/CustomHID/Src/usbd_customhid.c ****     0x5D,         /*bInterfaceSubClass : 1=BOOT, 0=no boot*/
 181:Middlewares/ST/STM32_USB_Device_Library/Class/CustomHID/Src/usbd_customhid.c ****  
 182:Middlewares/ST/STM32_USB_Device_Library/Class/CustomHID/Src/usbd_customhid.c ****     0x01,         /*nInterfaceProtocol : 0=none, 1=keyboard, 2=mouse*/
 183:Middlewares/ST/STM32_USB_Device_Library/Class/CustomHID/Src/usbd_customhid.c ****  
 184:Middlewares/ST/STM32_USB_Device_Library/Class/CustomHID/Src/usbd_customhid.c ****     0x00,            /*iInterface: Index of string descriptor*/
 185:Middlewares/ST/STM32_USB_Device_Library/Class/CustomHID/Src/usbd_customhid.c ****  
 186:Middlewares/ST/STM32_USB_Device_Library/Class/CustomHID/Src/usbd_customhid.c ****     /**************Unrecognized Class-Specific Descriptor***********************/
 187:Middlewares/ST/STM32_USB_Device_Library/Class/CustomHID/Src/usbd_customhid.c ****  
 188:Middlewares/ST/STM32_USB_Device_Library/Class/CustomHID/Src/usbd_customhid.c ****     /* 18 */
 189:Middlewares/ST/STM32_USB_Device_Library/Class/CustomHID/Src/usbd_customhid.c ****  
 190:Middlewares/ST/STM32_USB_Device_Library/Class/CustomHID/Src/usbd_customhid.c ****     0x11,         /*bLength: CUSTOM_HID Descriptor size*/
 191:Middlewares/ST/STM32_USB_Device_Library/Class/CustomHID/Src/usbd_customhid.c ****  
 192:Middlewares/ST/STM32_USB_Device_Library/Class/CustomHID/Src/usbd_customhid.c ****     0x21, /*bDescriptorType: CUSTOM_HID*/
 193:Middlewares/ST/STM32_USB_Device_Library/Class/CustomHID/Src/usbd_customhid.c ****  
 194:Middlewares/ST/STM32_USB_Device_Library/Class/CustomHID/Src/usbd_customhid.c ****     0x10,0x01,0x01,0x25,0x81,0x14,0x03,0x03,
 195:Middlewares/ST/STM32_USB_Device_Library/Class/CustomHID/Src/usbd_customhid.c ****  
 196:Middlewares/ST/STM32_USB_Device_Library/Class/CustomHID/Src/usbd_customhid.c ****     0x03,0x04,0x13,0x02,0x08,0x03,0x03,
 197:Middlewares/ST/STM32_USB_Device_Library/Class/CustomHID/Src/usbd_customhid.c ****  
 198:Middlewares/ST/STM32_USB_Device_Library/Class/CustomHID/Src/usbd_customhid.c ****     /**************Endpoint Descriptor 81 1 In, Interrupt, 4 ms******************/
 199:Middlewares/ST/STM32_USB_Device_Library/Class/CustomHID/Src/usbd_customhid.c ****  
 200:Middlewares/ST/STM32_USB_Device_Library/Class/CustomHID/Src/usbd_customhid.c ****     /* 27 */
 201:Middlewares/ST/STM32_USB_Device_Library/Class/CustomHID/Src/usbd_customhid.c ****  
 202:Middlewares/ST/STM32_USB_Device_Library/Class/CustomHID/Src/usbd_customhid.c ****     0x07,          /*bLength: Endpoint Descriptor size*/
 203:Middlewares/ST/STM32_USB_Device_Library/Class/CustomHID/Src/usbd_customhid.c ****  
ARM GAS  C:\Users\BaiJiang\AppData\Local\Temp\ccRXUetp.s 			page 5


 204:Middlewares/ST/STM32_USB_Device_Library/Class/CustomHID/Src/usbd_customhid.c ****     USB_DESC_TYPE_ENDPOINT, /*bDescriptorType:*/
 205:Middlewares/ST/STM32_USB_Device_Library/Class/CustomHID/Src/usbd_customhid.c ****  
 206:Middlewares/ST/STM32_USB_Device_Library/Class/CustomHID/Src/usbd_customhid.c ****  
 207:Middlewares/ST/STM32_USB_Device_Library/Class/CustomHID/Src/usbd_customhid.c ****  
 208:Middlewares/ST/STM32_USB_Device_Library/Class/CustomHID/Src/usbd_customhid.c ****     0X81,     /*bEndpointAddress: Endpoint Address (IN)*/
 209:Middlewares/ST/STM32_USB_Device_Library/Class/CustomHID/Src/usbd_customhid.c ****  
 210:Middlewares/ST/STM32_USB_Device_Library/Class/CustomHID/Src/usbd_customhid.c ****     0x03,          /*bmAttributes: Interrupt endpoint*/
 211:Middlewares/ST/STM32_USB_Device_Library/Class/CustomHID/Src/usbd_customhid.c ****  
 212:Middlewares/ST/STM32_USB_Device_Library/Class/CustomHID/Src/usbd_customhid.c ****     0X20, /*wMaxPacketSize: 2 Byte max */
 213:Middlewares/ST/STM32_USB_Device_Library/Class/CustomHID/Src/usbd_customhid.c ****  
 214:Middlewares/ST/STM32_USB_Device_Library/Class/CustomHID/Src/usbd_customhid.c ****     0x00,
 215:Middlewares/ST/STM32_USB_Device_Library/Class/CustomHID/Src/usbd_customhid.c ****  
 216:Middlewares/ST/STM32_USB_Device_Library/Class/CustomHID/Src/usbd_customhid.c ****     0X01 ,          /*bInterval: Polling Interval */
 217:Middlewares/ST/STM32_USB_Device_Library/Class/CustomHID/Src/usbd_customhid.c **** 
 218:Middlewares/ST/STM32_USB_Device_Library/Class/CustomHID/Src/usbd_customhid.c ****     /**************Endpoint Descriptor 02 2 Out, Interrupt, 8 ms******************/
 219:Middlewares/ST/STM32_USB_Device_Library/Class/CustomHID/Src/usbd_customhid.c ****  
 220:Middlewares/ST/STM32_USB_Device_Library/Class/CustomHID/Src/usbd_customhid.c ****     /* 34 */
 221:Middlewares/ST/STM32_USB_Device_Library/Class/CustomHID/Src/usbd_customhid.c ****  
 222:Middlewares/ST/STM32_USB_Device_Library/Class/CustomHID/Src/usbd_customhid.c ****     0x07,          /*bLength: Endpoint Descriptor size*/
 223:Middlewares/ST/STM32_USB_Device_Library/Class/CustomHID/Src/usbd_customhid.c ****  
 224:Middlewares/ST/STM32_USB_Device_Library/Class/CustomHID/Src/usbd_customhid.c ****     USB_DESC_TYPE_ENDPOINT, /*bDescriptorType:*/
 225:Middlewares/ST/STM32_USB_Device_Library/Class/CustomHID/Src/usbd_customhid.c ****  
 226:Middlewares/ST/STM32_USB_Device_Library/Class/CustomHID/Src/usbd_customhid.c ****  
 227:Middlewares/ST/STM32_USB_Device_Library/Class/CustomHID/Src/usbd_customhid.c ****  
 228:Middlewares/ST/STM32_USB_Device_Library/Class/CustomHID/Src/usbd_customhid.c ****     0x02,     /*bEndpointAddress: Endpoint Address (IN)*/
 229:Middlewares/ST/STM32_USB_Device_Library/Class/CustomHID/Src/usbd_customhid.c ****  
 230:Middlewares/ST/STM32_USB_Device_Library/Class/CustomHID/Src/usbd_customhid.c ****     0x03,          /*bmAttributes: Interrupt endpoint*/
 231:Middlewares/ST/STM32_USB_Device_Library/Class/CustomHID/Src/usbd_customhid.c ****  
 232:Middlewares/ST/STM32_USB_Device_Library/Class/CustomHID/Src/usbd_customhid.c ****     0x20, /*wMaxPacketSize: 2 Byte max */
 233:Middlewares/ST/STM32_USB_Device_Library/Class/CustomHID/Src/usbd_customhid.c ****  
 234:Middlewares/ST/STM32_USB_Device_Library/Class/CustomHID/Src/usbd_customhid.c ****     0x00,
 235:Middlewares/ST/STM32_USB_Device_Library/Class/CustomHID/Src/usbd_customhid.c ****  
 236:Middlewares/ST/STM32_USB_Device_Library/Class/CustomHID/Src/usbd_customhid.c ****     0x08,          /*bInterval: Polling Interval */
 237:Middlewares/ST/STM32_USB_Device_Library/Class/CustomHID/Src/usbd_customhid.c ****  
 238:Middlewares/ST/STM32_USB_Device_Library/Class/CustomHID/Src/usbd_customhid.c ****  
 239:Middlewares/ST/STM32_USB_Device_Library/Class/CustomHID/Src/usbd_customhid.c ****  
 240:Middlewares/ST/STM32_USB_Device_Library/Class/CustomHID/Src/usbd_customhid.c ****     /**************Interface Descriptor 1/0 Vendor-Specific, 2 Endpoints****************/
 241:Middlewares/ST/STM32_USB_Device_Library/Class/CustomHID/Src/usbd_customhid.c ****  
 242:Middlewares/ST/STM32_USB_Device_Library/Class/CustomHID/Src/usbd_customhid.c ****     /* 09 */
 243:Middlewares/ST/STM32_USB_Device_Library/Class/CustomHID/Src/usbd_customhid.c ****  
 244:Middlewares/ST/STM32_USB_Device_Library/Class/CustomHID/Src/usbd_customhid.c ****     0x09,         /*bLength: Interface Descriptor size*/
 245:Middlewares/ST/STM32_USB_Device_Library/Class/CustomHID/Src/usbd_customhid.c ****  
 246:Middlewares/ST/STM32_USB_Device_Library/Class/CustomHID/Src/usbd_customhid.c ****     USB_DESC_TYPE_INTERFACE,/*bDescriptorType: Interface descriptor type*/
 247:Middlewares/ST/STM32_USB_Device_Library/Class/CustomHID/Src/usbd_customhid.c ****  
 248:Middlewares/ST/STM32_USB_Device_Library/Class/CustomHID/Src/usbd_customhid.c ****     0x01,         /*bInterfaceNumber: Number of Interface*/
 249:Middlewares/ST/STM32_USB_Device_Library/Class/CustomHID/Src/usbd_customhid.c **** 
 250:Middlewares/ST/STM32_USB_Device_Library/Class/CustomHID/Src/usbd_customhid.c ****     0x00,         /*bAlternateSetting: Alternate setting*/
 251:Middlewares/ST/STM32_USB_Device_Library/Class/CustomHID/Src/usbd_customhid.c ****  
 252:Middlewares/ST/STM32_USB_Device_Library/Class/CustomHID/Src/usbd_customhid.c ****     0x02,         /*bNumEndpoints*/
 253:Middlewares/ST/STM32_USB_Device_Library/Class/CustomHID/Src/usbd_customhid.c ****  
 254:Middlewares/ST/STM32_USB_Device_Library/Class/CustomHID/Src/usbd_customhid.c ****     0xFF,         /*Vendor-Specific*/
 255:Middlewares/ST/STM32_USB_Device_Library/Class/CustomHID/Src/usbd_customhid.c ****  
 256:Middlewares/ST/STM32_USB_Device_Library/Class/CustomHID/Src/usbd_customhid.c ****     0x5D,         /*bInterfaceSubClass : 1=BOOT, 0=no boot*/
 257:Middlewares/ST/STM32_USB_Device_Library/Class/CustomHID/Src/usbd_customhid.c ****  
 258:Middlewares/ST/STM32_USB_Device_Library/Class/CustomHID/Src/usbd_customhid.c ****     0x01,         /*nInterfaceProtocol : 0=none, 1=keyboard, 2=mouse*/
 259:Middlewares/ST/STM32_USB_Device_Library/Class/CustomHID/Src/usbd_customhid.c ****  
 260:Middlewares/ST/STM32_USB_Device_Library/Class/CustomHID/Src/usbd_customhid.c ****     0x00,            /*iInterface: Index of string descriptor*/
ARM GAS  C:\Users\BaiJiang\AppData\Local\Temp\ccRXUetp.s 			page 6


 261:Middlewares/ST/STM32_USB_Device_Library/Class/CustomHID/Src/usbd_customhid.c ****  
 262:Middlewares/ST/STM32_USB_Device_Library/Class/CustomHID/Src/usbd_customhid.c ****     /**************Unrecognized Class-Specific Descriptor***********************/
 263:Middlewares/ST/STM32_USB_Device_Library/Class/CustomHID/Src/usbd_customhid.c ****  
 264:Middlewares/ST/STM32_USB_Device_Library/Class/CustomHID/Src/usbd_customhid.c ****     /* 18 */
 265:Middlewares/ST/STM32_USB_Device_Library/Class/CustomHID/Src/usbd_customhid.c ****  
 266:Middlewares/ST/STM32_USB_Device_Library/Class/CustomHID/Src/usbd_customhid.c ****     0x1B,         /*bLength: CUSTOM_HID Descriptor size*/
 267:Middlewares/ST/STM32_USB_Device_Library/Class/CustomHID/Src/usbd_customhid.c ****  
 268:Middlewares/ST/STM32_USB_Device_Library/Class/CustomHID/Src/usbd_customhid.c ****     0x21, /*bDescriptorType: CUSTOM_HID*/
 269:Middlewares/ST/STM32_USB_Device_Library/Class/CustomHID/Src/usbd_customhid.c ****  
 270:Middlewares/ST/STM32_USB_Device_Library/Class/CustomHID/Src/usbd_customhid.c ****     0x00,0x01,0x01,0x01,0x83,0x40,0x01,0x04,
 271:Middlewares/ST/STM32_USB_Device_Library/Class/CustomHID/Src/usbd_customhid.c ****  
 272:Middlewares/ST/STM32_USB_Device_Library/Class/CustomHID/Src/usbd_customhid.c ****     0x20,0x16,0x85,0x00,0x00,0x00,0x00,0x00,
 273:Middlewares/ST/STM32_USB_Device_Library/Class/CustomHID/Src/usbd_customhid.c ****  
 274:Middlewares/ST/STM32_USB_Device_Library/Class/CustomHID/Src/usbd_customhid.c ****     0x00,0x16,0x05,0x00,0x00,0x00,0x00,0x00,
 275:Middlewares/ST/STM32_USB_Device_Library/Class/CustomHID/Src/usbd_customhid.c ****  
 276:Middlewares/ST/STM32_USB_Device_Library/Class/CustomHID/Src/usbd_customhid.c ****     0x00,
 277:Middlewares/ST/STM32_USB_Device_Library/Class/CustomHID/Src/usbd_customhid.c ****  
 278:Middlewares/ST/STM32_USB_Device_Library/Class/CustomHID/Src/usbd_customhid.c ****     /**************Endpoint Descriptor 81 1 In, Interrupt, 4 ms******************/
 279:Middlewares/ST/STM32_USB_Device_Library/Class/CustomHID/Src/usbd_customhid.c ****  
 280:Middlewares/ST/STM32_USB_Device_Library/Class/CustomHID/Src/usbd_customhid.c ****     /* 27 */
 281:Middlewares/ST/STM32_USB_Device_Library/Class/CustomHID/Src/usbd_customhid.c ****  
 282:Middlewares/ST/STM32_USB_Device_Library/Class/CustomHID/Src/usbd_customhid.c ****     0x07,          /*bLength: Endpoint Descriptor size*/
 283:Middlewares/ST/STM32_USB_Device_Library/Class/CustomHID/Src/usbd_customhid.c ****  
 284:Middlewares/ST/STM32_USB_Device_Library/Class/CustomHID/Src/usbd_customhid.c ****     USB_DESC_TYPE_ENDPOINT, /*bDescriptorType:*/
 285:Middlewares/ST/STM32_USB_Device_Library/Class/CustomHID/Src/usbd_customhid.c ****  
 286:Middlewares/ST/STM32_USB_Device_Library/Class/CustomHID/Src/usbd_customhid.c ****  
 287:Middlewares/ST/STM32_USB_Device_Library/Class/CustomHID/Src/usbd_customhid.c ****  
 288:Middlewares/ST/STM32_USB_Device_Library/Class/CustomHID/Src/usbd_customhid.c ****     0x83,     /*bEndpointAddress: Endpoint Address (IN)*/
 289:Middlewares/ST/STM32_USB_Device_Library/Class/CustomHID/Src/usbd_customhid.c ****  
 290:Middlewares/ST/STM32_USB_Device_Library/Class/CustomHID/Src/usbd_customhid.c ****     0x03,          /*bmAttributes: Interrupt endpoint*/
 291:Middlewares/ST/STM32_USB_Device_Library/Class/CustomHID/Src/usbd_customhid.c ****  
 292:Middlewares/ST/STM32_USB_Device_Library/Class/CustomHID/Src/usbd_customhid.c ****     0x20, /*wMaxPacketSize: 2 Byte max */
 293:Middlewares/ST/STM32_USB_Device_Library/Class/CustomHID/Src/usbd_customhid.c ****  
 294:Middlewares/ST/STM32_USB_Device_Library/Class/CustomHID/Src/usbd_customhid.c ****     0x00,
 295:Middlewares/ST/STM32_USB_Device_Library/Class/CustomHID/Src/usbd_customhid.c ****  
 296:Middlewares/ST/STM32_USB_Device_Library/Class/CustomHID/Src/usbd_customhid.c ****     0x02,          /*bInterval: Polling Interval */
 297:Middlewares/ST/STM32_USB_Device_Library/Class/CustomHID/Src/usbd_customhid.c ****  
 298:Middlewares/ST/STM32_USB_Device_Library/Class/CustomHID/Src/usbd_customhid.c ****     /**************Endpoint Descriptor 02 2 Out, Interrupt, 8 ms******************/
 299:Middlewares/ST/STM32_USB_Device_Library/Class/CustomHID/Src/usbd_customhid.c ****  
 300:Middlewares/ST/STM32_USB_Device_Library/Class/CustomHID/Src/usbd_customhid.c ****     /* 34 */
 301:Middlewares/ST/STM32_USB_Device_Library/Class/CustomHID/Src/usbd_customhid.c ****  
 302:Middlewares/ST/STM32_USB_Device_Library/Class/CustomHID/Src/usbd_customhid.c ****     0x07,          /*bLength: Endpoint Descriptor size*/
 303:Middlewares/ST/STM32_USB_Device_Library/Class/CustomHID/Src/usbd_customhid.c ****  
 304:Middlewares/ST/STM32_USB_Device_Library/Class/CustomHID/Src/usbd_customhid.c ****     USB_DESC_TYPE_ENDPOINT, /*bDescriptorType:*/
 305:Middlewares/ST/STM32_USB_Device_Library/Class/CustomHID/Src/usbd_customhid.c ****  
 306:Middlewares/ST/STM32_USB_Device_Library/Class/CustomHID/Src/usbd_customhid.c ****  
 307:Middlewares/ST/STM32_USB_Device_Library/Class/CustomHID/Src/usbd_customhid.c ****  
 308:Middlewares/ST/STM32_USB_Device_Library/Class/CustomHID/Src/usbd_customhid.c ****     0x04,     /*bEndpointAddress: Endpoint Address (IN)*/
 309:Middlewares/ST/STM32_USB_Device_Library/Class/CustomHID/Src/usbd_customhid.c ****  
 310:Middlewares/ST/STM32_USB_Device_Library/Class/CustomHID/Src/usbd_customhid.c ****     0x03,          /*bmAttributes: Interrupt endpoint*/
 311:Middlewares/ST/STM32_USB_Device_Library/Class/CustomHID/Src/usbd_customhid.c ****  
 312:Middlewares/ST/STM32_USB_Device_Library/Class/CustomHID/Src/usbd_customhid.c ****     0x20, /*wMaxPacketSize: 2 Byte max */
 313:Middlewares/ST/STM32_USB_Device_Library/Class/CustomHID/Src/usbd_customhid.c ****  
 314:Middlewares/ST/STM32_USB_Device_Library/Class/CustomHID/Src/usbd_customhid.c ****     0x00,
 315:Middlewares/ST/STM32_USB_Device_Library/Class/CustomHID/Src/usbd_customhid.c ****  
 316:Middlewares/ST/STM32_USB_Device_Library/Class/CustomHID/Src/usbd_customhid.c ****     0x04,          /*bInterval: Polling Interval */
 317:Middlewares/ST/STM32_USB_Device_Library/Class/CustomHID/Src/usbd_customhid.c ****  
ARM GAS  C:\Users\BaiJiang\AppData\Local\Temp\ccRXUetp.s 			page 7


 318:Middlewares/ST/STM32_USB_Device_Library/Class/CustomHID/Src/usbd_customhid.c ****  
 319:Middlewares/ST/STM32_USB_Device_Library/Class/CustomHID/Src/usbd_customhid.c ****  
 320:Middlewares/ST/STM32_USB_Device_Library/Class/CustomHID/Src/usbd_customhid.c ****     /**************Interface Descriptor 2/0 Vendor-Specific, 2 Endpoints****************/
 321:Middlewares/ST/STM32_USB_Device_Library/Class/CustomHID/Src/usbd_customhid.c ****  
 322:Middlewares/ST/STM32_USB_Device_Library/Class/CustomHID/Src/usbd_customhid.c ****     /* 09 */
 323:Middlewares/ST/STM32_USB_Device_Library/Class/CustomHID/Src/usbd_customhid.c ****  
 324:Middlewares/ST/STM32_USB_Device_Library/Class/CustomHID/Src/usbd_customhid.c ****     0x09,         /*bLength: Interface Descriptor size*/
 325:Middlewares/ST/STM32_USB_Device_Library/Class/CustomHID/Src/usbd_customhid.c ****  
 326:Middlewares/ST/STM32_USB_Device_Library/Class/CustomHID/Src/usbd_customhid.c ****     USB_DESC_TYPE_INTERFACE,/*bDescriptorType: Interface descriptor type*/
 327:Middlewares/ST/STM32_USB_Device_Library/Class/CustomHID/Src/usbd_customhid.c ****  
 328:Middlewares/ST/STM32_USB_Device_Library/Class/CustomHID/Src/usbd_customhid.c ****     0x02,         /*bInterfaceNumber: Number of Interface*/
 329:Middlewares/ST/STM32_USB_Device_Library/Class/CustomHID/Src/usbd_customhid.c ****  
 330:Middlewares/ST/STM32_USB_Device_Library/Class/CustomHID/Src/usbd_customhid.c ****     0x00,         /*bAlternateSetting: Alternate setting*/
 331:Middlewares/ST/STM32_USB_Device_Library/Class/CustomHID/Src/usbd_customhid.c ****  
 332:Middlewares/ST/STM32_USB_Device_Library/Class/CustomHID/Src/usbd_customhid.c ****     0x01,         /*bNumEndpoints*/
 333:Middlewares/ST/STM32_USB_Device_Library/Class/CustomHID/Src/usbd_customhid.c ****  
 334:Middlewares/ST/STM32_USB_Device_Library/Class/CustomHID/Src/usbd_customhid.c ****     0xFF,         /*Vendor-Specific*/
 335:Middlewares/ST/STM32_USB_Device_Library/Class/CustomHID/Src/usbd_customhid.c ****  
 336:Middlewares/ST/STM32_USB_Device_Library/Class/CustomHID/Src/usbd_customhid.c ****     0x5D,         /*bInterfaceSubClass : 1=BOOT, 0=no boot*/
 337:Middlewares/ST/STM32_USB_Device_Library/Class/CustomHID/Src/usbd_customhid.c ****  
 338:Middlewares/ST/STM32_USB_Device_Library/Class/CustomHID/Src/usbd_customhid.c ****     0x02,         /*nInterfaceProtocol : 0=none, 1=keyboard, 2=mouse*/
 339:Middlewares/ST/STM32_USB_Device_Library/Class/CustomHID/Src/usbd_customhid.c ****  
 340:Middlewares/ST/STM32_USB_Device_Library/Class/CustomHID/Src/usbd_customhid.c ****     0x00,            /*iInterface: Index of string descriptor*/
 341:Middlewares/ST/STM32_USB_Device_Library/Class/CustomHID/Src/usbd_customhid.c ****  
 342:Middlewares/ST/STM32_USB_Device_Library/Class/CustomHID/Src/usbd_customhid.c ****     /**************Unrecognized Class-Specific Descriptor***********************/
 343:Middlewares/ST/STM32_USB_Device_Library/Class/CustomHID/Src/usbd_customhid.c ****  
 344:Middlewares/ST/STM32_USB_Device_Library/Class/CustomHID/Src/usbd_customhid.c ****     /* 18 */
 345:Middlewares/ST/STM32_USB_Device_Library/Class/CustomHID/Src/usbd_customhid.c ****  
 346:Middlewares/ST/STM32_USB_Device_Library/Class/CustomHID/Src/usbd_customhid.c ****     0x09,         /*bLength: CUSTOM_HID Descriptor size*/
 347:Middlewares/ST/STM32_USB_Device_Library/Class/CustomHID/Src/usbd_customhid.c ****  
 348:Middlewares/ST/STM32_USB_Device_Library/Class/CustomHID/Src/usbd_customhid.c ****     0x21, /*bDescriptorType: CUSTOM_HID*/
 349:Middlewares/ST/STM32_USB_Device_Library/Class/CustomHID/Src/usbd_customhid.c ****  
 350:Middlewares/ST/STM32_USB_Device_Library/Class/CustomHID/Src/usbd_customhid.c ****     0x00,0x01,0x01,0x22,0x86,0x07,0x00,
 351:Middlewares/ST/STM32_USB_Device_Library/Class/CustomHID/Src/usbd_customhid.c ****  
 352:Middlewares/ST/STM32_USB_Device_Library/Class/CustomHID/Src/usbd_customhid.c ****     /**************Endpoint Descriptor 81 1 In, Interrupt, 4 ms******************/
 353:Middlewares/ST/STM32_USB_Device_Library/Class/CustomHID/Src/usbd_customhid.c ****  
 354:Middlewares/ST/STM32_USB_Device_Library/Class/CustomHID/Src/usbd_customhid.c ****     /* 27 */
 355:Middlewares/ST/STM32_USB_Device_Library/Class/CustomHID/Src/usbd_customhid.c ****  
 356:Middlewares/ST/STM32_USB_Device_Library/Class/CustomHID/Src/usbd_customhid.c ****     0x07,          /*bLength: Endpoint Descriptor size*/
 357:Middlewares/ST/STM32_USB_Device_Library/Class/CustomHID/Src/usbd_customhid.c ****  
 358:Middlewares/ST/STM32_USB_Device_Library/Class/CustomHID/Src/usbd_customhid.c ****     USB_DESC_TYPE_ENDPOINT, /*bDescriptorType:*/
 359:Middlewares/ST/STM32_USB_Device_Library/Class/CustomHID/Src/usbd_customhid.c ****  
 360:Middlewares/ST/STM32_USB_Device_Library/Class/CustomHID/Src/usbd_customhid.c ****  
 361:Middlewares/ST/STM32_USB_Device_Library/Class/CustomHID/Src/usbd_customhid.c ****  
 362:Middlewares/ST/STM32_USB_Device_Library/Class/CustomHID/Src/usbd_customhid.c ****     0x86,     /*bEndpointAddress: Endpoint Address (IN)*/
 363:Middlewares/ST/STM32_USB_Device_Library/Class/CustomHID/Src/usbd_customhid.c ****  
 364:Middlewares/ST/STM32_USB_Device_Library/Class/CustomHID/Src/usbd_customhid.c ****     0x03,          /*bmAttributes: Interrupt endpoint*/
 365:Middlewares/ST/STM32_USB_Device_Library/Class/CustomHID/Src/usbd_customhid.c ****  
 366:Middlewares/ST/STM32_USB_Device_Library/Class/CustomHID/Src/usbd_customhid.c ****     0x20, /*wMaxPacketSize: 2 Byte max */
 367:Middlewares/ST/STM32_USB_Device_Library/Class/CustomHID/Src/usbd_customhid.c ****  
 368:Middlewares/ST/STM32_USB_Device_Library/Class/CustomHID/Src/usbd_customhid.c ****     0x00,
 369:Middlewares/ST/STM32_USB_Device_Library/Class/CustomHID/Src/usbd_customhid.c ****  
 370:Middlewares/ST/STM32_USB_Device_Library/Class/CustomHID/Src/usbd_customhid.c ****     0x10,          /*bInterval: Polling Interval */
 371:Middlewares/ST/STM32_USB_Device_Library/Class/CustomHID/Src/usbd_customhid.c ****  
 372:Middlewares/ST/STM32_USB_Device_Library/Class/CustomHID/Src/usbd_customhid.c ****  
 373:Middlewares/ST/STM32_USB_Device_Library/Class/CustomHID/Src/usbd_customhid.c ****  
 374:Middlewares/ST/STM32_USB_Device_Library/Class/CustomHID/Src/usbd_customhid.c ****     /**************nterface Descriptor 3/0 Vendor-Specific, 0 Endpoints****************/
ARM GAS  C:\Users\BaiJiang\AppData\Local\Temp\ccRXUetp.s 			page 8


 375:Middlewares/ST/STM32_USB_Device_Library/Class/CustomHID/Src/usbd_customhid.c ****  
 376:Middlewares/ST/STM32_USB_Device_Library/Class/CustomHID/Src/usbd_customhid.c ****     /* 09 */
 377:Middlewares/ST/STM32_USB_Device_Library/Class/CustomHID/Src/usbd_customhid.c ****  
 378:Middlewares/ST/STM32_USB_Device_Library/Class/CustomHID/Src/usbd_customhid.c ****     0x09,         /*bLength: Interface Descriptor size*/
 379:Middlewares/ST/STM32_USB_Device_Library/Class/CustomHID/Src/usbd_customhid.c ****  
 380:Middlewares/ST/STM32_USB_Device_Library/Class/CustomHID/Src/usbd_customhid.c ****     USB_DESC_TYPE_INTERFACE,/*bDescriptorType: Interface descriptor type*/
 381:Middlewares/ST/STM32_USB_Device_Library/Class/CustomHID/Src/usbd_customhid.c ****  
 382:Middlewares/ST/STM32_USB_Device_Library/Class/CustomHID/Src/usbd_customhid.c ****     0x03,         /*bInterfaceNumber: Number of Interface*/
 383:Middlewares/ST/STM32_USB_Device_Library/Class/CustomHID/Src/usbd_customhid.c ****  
 384:Middlewares/ST/STM32_USB_Device_Library/Class/CustomHID/Src/usbd_customhid.c ****     0x00,         /*bAlternateSetting: Alternate setting*/
 385:Middlewares/ST/STM32_USB_Device_Library/Class/CustomHID/Src/usbd_customhid.c ****  
 386:Middlewares/ST/STM32_USB_Device_Library/Class/CustomHID/Src/usbd_customhid.c ****     0x00,         /*bNumEndpoints*/
 387:Middlewares/ST/STM32_USB_Device_Library/Class/CustomHID/Src/usbd_customhid.c ****  
 388:Middlewares/ST/STM32_USB_Device_Library/Class/CustomHID/Src/usbd_customhid.c ****     0xFF,         /*Vendor-Specific*/
 389:Middlewares/ST/STM32_USB_Device_Library/Class/CustomHID/Src/usbd_customhid.c ****  
 390:Middlewares/ST/STM32_USB_Device_Library/Class/CustomHID/Src/usbd_customhid.c ****     0xFD,         /*bInterfaceSubClass : 1=BOOT, 0=no boot*/
 391:Middlewares/ST/STM32_USB_Device_Library/Class/CustomHID/Src/usbd_customhid.c ****  
 392:Middlewares/ST/STM32_USB_Device_Library/Class/CustomHID/Src/usbd_customhid.c ****     0x13,         /*nInterfaceProtocol : 0=none, 1=keyboard, 2=mouse*/
 393:Middlewares/ST/STM32_USB_Device_Library/Class/CustomHID/Src/usbd_customhid.c ****  
 394:Middlewares/ST/STM32_USB_Device_Library/Class/CustomHID/Src/usbd_customhid.c ****     0x04,            /*iInterface: Index of string descriptor*/
 395:Middlewares/ST/STM32_USB_Device_Library/Class/CustomHID/Src/usbd_customhid.c ****  
 396:Middlewares/ST/STM32_USB_Device_Library/Class/CustomHID/Src/usbd_customhid.c ****     /**************Unrecognized Class-Specific Descriptor***********************/
 397:Middlewares/ST/STM32_USB_Device_Library/Class/CustomHID/Src/usbd_customhid.c ****  
 398:Middlewares/ST/STM32_USB_Device_Library/Class/CustomHID/Src/usbd_customhid.c ****     /* 18 */
 399:Middlewares/ST/STM32_USB_Device_Library/Class/CustomHID/Src/usbd_customhid.c ****  
 400:Middlewares/ST/STM32_USB_Device_Library/Class/CustomHID/Src/usbd_customhid.c ****     0x06,         /*bLength: CUSTOM_HID Descriptor size*/
 401:Middlewares/ST/STM32_USB_Device_Library/Class/CustomHID/Src/usbd_customhid.c ****  
 402:Middlewares/ST/STM32_USB_Device_Library/Class/CustomHID/Src/usbd_customhid.c ****     0x41, /*bDescriptorType: CUSTOM_HID*/
 403:Middlewares/ST/STM32_USB_Device_Library/Class/CustomHID/Src/usbd_customhid.c ****  
 404:Middlewares/ST/STM32_USB_Device_Library/Class/CustomHID/Src/usbd_customhid.c ****     0x00,0x01,0x01,0x03
 405:Middlewares/ST/STM32_USB_Device_Library/Class/CustomHID/Src/usbd_customhid.c **** };
 406:Middlewares/ST/STM32_USB_Device_Library/Class/CustomHID/Src/usbd_customhid.c **** 
 407:Middlewares/ST/STM32_USB_Device_Library/Class/CustomHID/Src/usbd_customhid.c **** /* USB CUSTOM_HID device HS Configuration Descriptor */
 408:Middlewares/ST/STM32_USB_Device_Library/Class/CustomHID/Src/usbd_customhid.c **** __ALIGN_BEGIN static uint8_t USBD_CUSTOM_HID_CfgHSDesc[USB_CUSTOM_HID_CONFIG_DESC_SIZ] __ALIGN_END 
 409:Middlewares/ST/STM32_USB_Device_Library/Class/CustomHID/Src/usbd_customhid.c **** {
 410:Middlewares/ST/STM32_USB_Device_Library/Class/CustomHID/Src/usbd_customhid.c ****   0x09, /* bLength: Configuration Descriptor size */
 411:Middlewares/ST/STM32_USB_Device_Library/Class/CustomHID/Src/usbd_customhid.c ****   USB_DESC_TYPE_CONFIGURATION, /* bDescriptorType: Configuration */
 412:Middlewares/ST/STM32_USB_Device_Library/Class/CustomHID/Src/usbd_customhid.c ****   USB_CUSTOM_HID_CONFIG_DESC_SIZ,
 413:Middlewares/ST/STM32_USB_Device_Library/Class/CustomHID/Src/usbd_customhid.c ****   /* wTotalLength: Bytes returned */
 414:Middlewares/ST/STM32_USB_Device_Library/Class/CustomHID/Src/usbd_customhid.c ****   0x00,
 415:Middlewares/ST/STM32_USB_Device_Library/Class/CustomHID/Src/usbd_customhid.c ****   0x01,         /*bNumInterfaces: 1 interface*/
 416:Middlewares/ST/STM32_USB_Device_Library/Class/CustomHID/Src/usbd_customhid.c ****   0x01,         /*bConfigurationValue: Configuration value*/
 417:Middlewares/ST/STM32_USB_Device_Library/Class/CustomHID/Src/usbd_customhid.c ****   0x00,         /*iConfiguration: Index of string descriptor describing
 418:Middlewares/ST/STM32_USB_Device_Library/Class/CustomHID/Src/usbd_customhid.c ****   the configuration*/
 419:Middlewares/ST/STM32_USB_Device_Library/Class/CustomHID/Src/usbd_customhid.c ****   0xC0,         /*bmAttributes: bus powered */
 420:Middlewares/ST/STM32_USB_Device_Library/Class/CustomHID/Src/usbd_customhid.c ****   0x32,         /*MaxPower 100 mA: this current is used for detecting Vbus*/
 421:Middlewares/ST/STM32_USB_Device_Library/Class/CustomHID/Src/usbd_customhid.c **** 
 422:Middlewares/ST/STM32_USB_Device_Library/Class/CustomHID/Src/usbd_customhid.c ****   /************** Descriptor of CUSTOM HID interface ****************/
 423:Middlewares/ST/STM32_USB_Device_Library/Class/CustomHID/Src/usbd_customhid.c ****   /* 09 */
 424:Middlewares/ST/STM32_USB_Device_Library/Class/CustomHID/Src/usbd_customhid.c ****   0x09,         /*bLength: Interface Descriptor size*/
 425:Middlewares/ST/STM32_USB_Device_Library/Class/CustomHID/Src/usbd_customhid.c ****   USB_DESC_TYPE_INTERFACE,/*bDescriptorType: Interface descriptor type*/
 426:Middlewares/ST/STM32_USB_Device_Library/Class/CustomHID/Src/usbd_customhid.c ****   0x00,         /*bInterfaceNumber: Number of Interface*/
 427:Middlewares/ST/STM32_USB_Device_Library/Class/CustomHID/Src/usbd_customhid.c ****   0x00,         /*bAlternateSetting: Alternate setting*/
 428:Middlewares/ST/STM32_USB_Device_Library/Class/CustomHID/Src/usbd_customhid.c ****   0x02,         /*bNumEndpoints*/
 429:Middlewares/ST/STM32_USB_Device_Library/Class/CustomHID/Src/usbd_customhid.c ****   0x03,         /*bInterfaceClass: CUSTOM_HID*/
 430:Middlewares/ST/STM32_USB_Device_Library/Class/CustomHID/Src/usbd_customhid.c ****   0x00,         /*bInterfaceSubClass : 1=BOOT, 0=no boot*/
 431:Middlewares/ST/STM32_USB_Device_Library/Class/CustomHID/Src/usbd_customhid.c ****   0x00,         /*nInterfaceProtocol : 0=none, 1=keyboard, 2=mouse*/
ARM GAS  C:\Users\BaiJiang\AppData\Local\Temp\ccRXUetp.s 			page 9


 432:Middlewares/ST/STM32_USB_Device_Library/Class/CustomHID/Src/usbd_customhid.c ****   0,            /*iInterface: Index of string descriptor*/
 433:Middlewares/ST/STM32_USB_Device_Library/Class/CustomHID/Src/usbd_customhid.c ****   /******************** Descriptor of CUSTOM_HID *************************/
 434:Middlewares/ST/STM32_USB_Device_Library/Class/CustomHID/Src/usbd_customhid.c ****   /* 18 */
 435:Middlewares/ST/STM32_USB_Device_Library/Class/CustomHID/Src/usbd_customhid.c ****   0x09,         /*bLength: CUSTOM_HID Descriptor size*/
 436:Middlewares/ST/STM32_USB_Device_Library/Class/CustomHID/Src/usbd_customhid.c ****   CUSTOM_HID_DESCRIPTOR_TYPE, /*bDescriptorType: CUSTOM_HID*/
 437:Middlewares/ST/STM32_USB_Device_Library/Class/CustomHID/Src/usbd_customhid.c ****   0x11,         /*bCUSTOM_HIDUSTOM_HID: CUSTOM_HID Class Spec release number*/
 438:Middlewares/ST/STM32_USB_Device_Library/Class/CustomHID/Src/usbd_customhid.c ****   0x01,
 439:Middlewares/ST/STM32_USB_Device_Library/Class/CustomHID/Src/usbd_customhid.c ****   0x00,         /*bCountryCode: Hardware target country*/
 440:Middlewares/ST/STM32_USB_Device_Library/Class/CustomHID/Src/usbd_customhid.c ****   0x01,         /*bNumDescriptors: Number of CUSTOM_HID class descriptors to follow*/
 441:Middlewares/ST/STM32_USB_Device_Library/Class/CustomHID/Src/usbd_customhid.c ****   0x22,         /*bDescriptorType*/
 442:Middlewares/ST/STM32_USB_Device_Library/Class/CustomHID/Src/usbd_customhid.c ****   USBD_CUSTOM_HID_REPORT_DESC_SIZE,/*wItemLength: Total length of Report descriptor*/
 443:Middlewares/ST/STM32_USB_Device_Library/Class/CustomHID/Src/usbd_customhid.c ****   0x00,
 444:Middlewares/ST/STM32_USB_Device_Library/Class/CustomHID/Src/usbd_customhid.c ****   /******************** Descriptor of Custom HID endpoints ********************/
 445:Middlewares/ST/STM32_USB_Device_Library/Class/CustomHID/Src/usbd_customhid.c ****   /* 27 */
 446:Middlewares/ST/STM32_USB_Device_Library/Class/CustomHID/Src/usbd_customhid.c ****   0x07,          /*bLength: Endpoint Descriptor size*/
 447:Middlewares/ST/STM32_USB_Device_Library/Class/CustomHID/Src/usbd_customhid.c ****   USB_DESC_TYPE_ENDPOINT, /*bDescriptorType:*/
 448:Middlewares/ST/STM32_USB_Device_Library/Class/CustomHID/Src/usbd_customhid.c **** 
 449:Middlewares/ST/STM32_USB_Device_Library/Class/CustomHID/Src/usbd_customhid.c ****   CUSTOM_HID_EPIN_ADDR,     /*bEndpointAddress: Endpoint Address (IN)*/
 450:Middlewares/ST/STM32_USB_Device_Library/Class/CustomHID/Src/usbd_customhid.c ****   0x03,          /*bmAttributes: Interrupt endpoint*/
 451:Middlewares/ST/STM32_USB_Device_Library/Class/CustomHID/Src/usbd_customhid.c ****   CUSTOM_HID_EPIN_SIZE, /*wMaxPacketSize: 2 Byte max */
 452:Middlewares/ST/STM32_USB_Device_Library/Class/CustomHID/Src/usbd_customhid.c ****   0x00,
 453:Middlewares/ST/STM32_USB_Device_Library/Class/CustomHID/Src/usbd_customhid.c ****   CUSTOM_HID_HS_BINTERVAL,          /*bInterval: Polling Interval */
 454:Middlewares/ST/STM32_USB_Device_Library/Class/CustomHID/Src/usbd_customhid.c ****   /* 34 */
 455:Middlewares/ST/STM32_USB_Device_Library/Class/CustomHID/Src/usbd_customhid.c **** 
 456:Middlewares/ST/STM32_USB_Device_Library/Class/CustomHID/Src/usbd_customhid.c ****   0x07,          /* bLength: Endpoint Descriptor size */
 457:Middlewares/ST/STM32_USB_Device_Library/Class/CustomHID/Src/usbd_customhid.c ****   USB_DESC_TYPE_ENDPOINT, /* bDescriptorType: */
 458:Middlewares/ST/STM32_USB_Device_Library/Class/CustomHID/Src/usbd_customhid.c ****   CUSTOM_HID_EPOUT_ADDR,  /*bEndpointAddress: Endpoint Address (OUT)*/
 459:Middlewares/ST/STM32_USB_Device_Library/Class/CustomHID/Src/usbd_customhid.c ****   0x03, /* bmAttributes: Interrupt endpoint */
 460:Middlewares/ST/STM32_USB_Device_Library/Class/CustomHID/Src/usbd_customhid.c ****   CUSTOM_HID_EPOUT_SIZE,  /* wMaxPacketSize: 2 Bytes max  */
 461:Middlewares/ST/STM32_USB_Device_Library/Class/CustomHID/Src/usbd_customhid.c ****   0x00,
 462:Middlewares/ST/STM32_USB_Device_Library/Class/CustomHID/Src/usbd_customhid.c ****   CUSTOM_HID_HS_BINTERVAL,  /* bInterval: Polling Interval */
 463:Middlewares/ST/STM32_USB_Device_Library/Class/CustomHID/Src/usbd_customhid.c ****   /* 41 */
 464:Middlewares/ST/STM32_USB_Device_Library/Class/CustomHID/Src/usbd_customhid.c **** };
 465:Middlewares/ST/STM32_USB_Device_Library/Class/CustomHID/Src/usbd_customhid.c **** 
 466:Middlewares/ST/STM32_USB_Device_Library/Class/CustomHID/Src/usbd_customhid.c **** /* USB CUSTOM_HID device Other Speed Configuration Descriptor */
 467:Middlewares/ST/STM32_USB_Device_Library/Class/CustomHID/Src/usbd_customhid.c **** __ALIGN_BEGIN static uint8_t USBD_CUSTOM_HID_OtherSpeedCfgDesc[USB_CUSTOM_HID_CONFIG_DESC_SIZ] __AL
 468:Middlewares/ST/STM32_USB_Device_Library/Class/CustomHID/Src/usbd_customhid.c **** {
 469:Middlewares/ST/STM32_USB_Device_Library/Class/CustomHID/Src/usbd_customhid.c ****   0x09, /* bLength: Configuration Descriptor size */
 470:Middlewares/ST/STM32_USB_Device_Library/Class/CustomHID/Src/usbd_customhid.c ****   USB_DESC_TYPE_CONFIGURATION, /* bDescriptorType: Configuration */
 471:Middlewares/ST/STM32_USB_Device_Library/Class/CustomHID/Src/usbd_customhid.c ****   USB_CUSTOM_HID_CONFIG_DESC_SIZ,
 472:Middlewares/ST/STM32_USB_Device_Library/Class/CustomHID/Src/usbd_customhid.c ****   /* wTotalLength: Bytes returned */
 473:Middlewares/ST/STM32_USB_Device_Library/Class/CustomHID/Src/usbd_customhid.c ****   0x00,
 474:Middlewares/ST/STM32_USB_Device_Library/Class/CustomHID/Src/usbd_customhid.c ****   0x01,         /*bNumInterfaces: 1 interface*/
 475:Middlewares/ST/STM32_USB_Device_Library/Class/CustomHID/Src/usbd_customhid.c ****   0x01,         /*bConfigurationValue: Configuration value*/
 476:Middlewares/ST/STM32_USB_Device_Library/Class/CustomHID/Src/usbd_customhid.c ****   0x00,         /*iConfiguration: Index of string descriptor describing
 477:Middlewares/ST/STM32_USB_Device_Library/Class/CustomHID/Src/usbd_customhid.c ****   the configuration*/
 478:Middlewares/ST/STM32_USB_Device_Library/Class/CustomHID/Src/usbd_customhid.c ****   0xC0,         /*bmAttributes: bus powered */
 479:Middlewares/ST/STM32_USB_Device_Library/Class/CustomHID/Src/usbd_customhid.c ****   0x32,         /*MaxPower 100 mA: this current is used for detecting Vbus*/
 480:Middlewares/ST/STM32_USB_Device_Library/Class/CustomHID/Src/usbd_customhid.c **** 
 481:Middlewares/ST/STM32_USB_Device_Library/Class/CustomHID/Src/usbd_customhid.c ****   /************** Descriptor of CUSTOM HID interface ****************/
 482:Middlewares/ST/STM32_USB_Device_Library/Class/CustomHID/Src/usbd_customhid.c ****   /* 09 */
 483:Middlewares/ST/STM32_USB_Device_Library/Class/CustomHID/Src/usbd_customhid.c ****   0x09,         /*bLength: Interface Descriptor size*/
 484:Middlewares/ST/STM32_USB_Device_Library/Class/CustomHID/Src/usbd_customhid.c ****   USB_DESC_TYPE_INTERFACE,/*bDescriptorType: Interface descriptor type*/
 485:Middlewares/ST/STM32_USB_Device_Library/Class/CustomHID/Src/usbd_customhid.c ****   0x00,         /*bInterfaceNumber: Number of Interface*/
 486:Middlewares/ST/STM32_USB_Device_Library/Class/CustomHID/Src/usbd_customhid.c ****   0x00,         /*bAlternateSetting: Alternate setting*/
 487:Middlewares/ST/STM32_USB_Device_Library/Class/CustomHID/Src/usbd_customhid.c ****   0x02,         /*bNumEndpoints*/
 488:Middlewares/ST/STM32_USB_Device_Library/Class/CustomHID/Src/usbd_customhid.c ****   0x03,         /*bInterfaceClass: CUSTOM_HID*/
ARM GAS  C:\Users\BaiJiang\AppData\Local\Temp\ccRXUetp.s 			page 10


 489:Middlewares/ST/STM32_USB_Device_Library/Class/CustomHID/Src/usbd_customhid.c ****   0x00,         /*bInterfaceSubClass : 1=BOOT, 0=no boot*/
 490:Middlewares/ST/STM32_USB_Device_Library/Class/CustomHID/Src/usbd_customhid.c ****   0x00,         /*nInterfaceProtocol : 0=none, 1=keyboard, 2=mouse*/
 491:Middlewares/ST/STM32_USB_Device_Library/Class/CustomHID/Src/usbd_customhid.c ****   0,            /*iInterface: Index of string descriptor*/
 492:Middlewares/ST/STM32_USB_Device_Library/Class/CustomHID/Src/usbd_customhid.c ****   /******************** Descriptor of CUSTOM_HID *************************/
 493:Middlewares/ST/STM32_USB_Device_Library/Class/CustomHID/Src/usbd_customhid.c ****   /* 18 */
 494:Middlewares/ST/STM32_USB_Device_Library/Class/CustomHID/Src/usbd_customhid.c ****   0x09,         /*bLength: CUSTOM_HID Descriptor size*/
 495:Middlewares/ST/STM32_USB_Device_Library/Class/CustomHID/Src/usbd_customhid.c ****   CUSTOM_HID_DESCRIPTOR_TYPE, /*bDescriptorType: CUSTOM_HID*/
 496:Middlewares/ST/STM32_USB_Device_Library/Class/CustomHID/Src/usbd_customhid.c ****   0x11,         /*bCUSTOM_HIDUSTOM_HID: CUSTOM_HID Class Spec release number*/
 497:Middlewares/ST/STM32_USB_Device_Library/Class/CustomHID/Src/usbd_customhid.c ****   0x01,
 498:Middlewares/ST/STM32_USB_Device_Library/Class/CustomHID/Src/usbd_customhid.c ****   0x00,         /*bCountryCode: Hardware target country*/
 499:Middlewares/ST/STM32_USB_Device_Library/Class/CustomHID/Src/usbd_customhid.c ****   0x01,         /*bNumDescriptors: Number of CUSTOM_HID class descriptors to follow*/
 500:Middlewares/ST/STM32_USB_Device_Library/Class/CustomHID/Src/usbd_customhid.c ****   0x22,         /*bDescriptorType*/
 501:Middlewares/ST/STM32_USB_Device_Library/Class/CustomHID/Src/usbd_customhid.c ****   USBD_CUSTOM_HID_REPORT_DESC_SIZE,/*wItemLength: Total length of Report descriptor*/
 502:Middlewares/ST/STM32_USB_Device_Library/Class/CustomHID/Src/usbd_customhid.c ****   0x00,
 503:Middlewares/ST/STM32_USB_Device_Library/Class/CustomHID/Src/usbd_customhid.c ****   /******************** Descriptor of Custom HID endpoints ********************/
 504:Middlewares/ST/STM32_USB_Device_Library/Class/CustomHID/Src/usbd_customhid.c ****   /* 27 */
 505:Middlewares/ST/STM32_USB_Device_Library/Class/CustomHID/Src/usbd_customhid.c ****   0x07,          /*bLength: Endpoint Descriptor size*/
 506:Middlewares/ST/STM32_USB_Device_Library/Class/CustomHID/Src/usbd_customhid.c ****   USB_DESC_TYPE_ENDPOINT, /*bDescriptorType:*/
 507:Middlewares/ST/STM32_USB_Device_Library/Class/CustomHID/Src/usbd_customhid.c **** 
 508:Middlewares/ST/STM32_USB_Device_Library/Class/CustomHID/Src/usbd_customhid.c ****   CUSTOM_HID_EPIN_ADDR,     /*bEndpointAddress: Endpoint Address (IN)*/
 509:Middlewares/ST/STM32_USB_Device_Library/Class/CustomHID/Src/usbd_customhid.c ****   0x03,          /*bmAttributes: Interrupt endpoint*/
 510:Middlewares/ST/STM32_USB_Device_Library/Class/CustomHID/Src/usbd_customhid.c ****   CUSTOM_HID_EPIN_SIZE, /*wMaxPacketSize: 2 Byte max */
 511:Middlewares/ST/STM32_USB_Device_Library/Class/CustomHID/Src/usbd_customhid.c ****   0x00,
 512:Middlewares/ST/STM32_USB_Device_Library/Class/CustomHID/Src/usbd_customhid.c ****   CUSTOM_HID_FS_BINTERVAL,          /*bInterval: Polling Interval */
 513:Middlewares/ST/STM32_USB_Device_Library/Class/CustomHID/Src/usbd_customhid.c ****   /* 34 */
 514:Middlewares/ST/STM32_USB_Device_Library/Class/CustomHID/Src/usbd_customhid.c **** 
 515:Middlewares/ST/STM32_USB_Device_Library/Class/CustomHID/Src/usbd_customhid.c ****   0x07,          /* bLength: Endpoint Descriptor size */
 516:Middlewares/ST/STM32_USB_Device_Library/Class/CustomHID/Src/usbd_customhid.c ****   USB_DESC_TYPE_ENDPOINT, /* bDescriptorType: */
 517:Middlewares/ST/STM32_USB_Device_Library/Class/CustomHID/Src/usbd_customhid.c ****   CUSTOM_HID_EPOUT_ADDR,  /*bEndpointAddress: Endpoint Address (OUT)*/
 518:Middlewares/ST/STM32_USB_Device_Library/Class/CustomHID/Src/usbd_customhid.c ****   0x03, /* bmAttributes: Interrupt endpoint */
 519:Middlewares/ST/STM32_USB_Device_Library/Class/CustomHID/Src/usbd_customhid.c ****   CUSTOM_HID_EPOUT_SIZE,  /* wMaxPacketSize: 2 Bytes max  */
 520:Middlewares/ST/STM32_USB_Device_Library/Class/CustomHID/Src/usbd_customhid.c ****   0x00,
 521:Middlewares/ST/STM32_USB_Device_Library/Class/CustomHID/Src/usbd_customhid.c ****   CUSTOM_HID_FS_BINTERVAL,  /* bInterval: Polling Interval */
 522:Middlewares/ST/STM32_USB_Device_Library/Class/CustomHID/Src/usbd_customhid.c ****   /* 41 */
 523:Middlewares/ST/STM32_USB_Device_Library/Class/CustomHID/Src/usbd_customhid.c **** };
 524:Middlewares/ST/STM32_USB_Device_Library/Class/CustomHID/Src/usbd_customhid.c **** 
 525:Middlewares/ST/STM32_USB_Device_Library/Class/CustomHID/Src/usbd_customhid.c **** /* USB CUSTOM_HID device Configuration Descriptor */
 526:Middlewares/ST/STM32_USB_Device_Library/Class/CustomHID/Src/usbd_customhid.c **** __ALIGN_BEGIN static uint8_t USBD_CUSTOM_HID_Desc[USB_CUSTOM_HID_DESC_SIZ] __ALIGN_END =
 527:Middlewares/ST/STM32_USB_Device_Library/Class/CustomHID/Src/usbd_customhid.c **** {
 528:Middlewares/ST/STM32_USB_Device_Library/Class/CustomHID/Src/usbd_customhid.c ****   /* 18 */
 529:Middlewares/ST/STM32_USB_Device_Library/Class/CustomHID/Src/usbd_customhid.c ****   0x09,         /*bLength: CUSTOM_HID Descriptor size*/
 530:Middlewares/ST/STM32_USB_Device_Library/Class/CustomHID/Src/usbd_customhid.c ****   CUSTOM_HID_DESCRIPTOR_TYPE, /*bDescriptorType: CUSTOM_HID*/
 531:Middlewares/ST/STM32_USB_Device_Library/Class/CustomHID/Src/usbd_customhid.c ****   0x11,         /*bCUSTOM_HIDUSTOM_HID: CUSTOM_HID Class Spec release number*/
 532:Middlewares/ST/STM32_USB_Device_Library/Class/CustomHID/Src/usbd_customhid.c ****   0x01,
 533:Middlewares/ST/STM32_USB_Device_Library/Class/CustomHID/Src/usbd_customhid.c ****   0x00,         /*bCountryCode: Hardware target country*/
 534:Middlewares/ST/STM32_USB_Device_Library/Class/CustomHID/Src/usbd_customhid.c ****   0x01,         /*bNumDescriptors: Number of CUSTOM_HID class descriptors to follow*/
 535:Middlewares/ST/STM32_USB_Device_Library/Class/CustomHID/Src/usbd_customhid.c ****   0x22,         /*bDescriptorType*/
 536:Middlewares/ST/STM32_USB_Device_Library/Class/CustomHID/Src/usbd_customhid.c ****   USBD_CUSTOM_HID_REPORT_DESC_SIZE,/*wItemLength: Total length of Report descriptor*/
 537:Middlewares/ST/STM32_USB_Device_Library/Class/CustomHID/Src/usbd_customhid.c ****   0x00,
 538:Middlewares/ST/STM32_USB_Device_Library/Class/CustomHID/Src/usbd_customhid.c **** };
 539:Middlewares/ST/STM32_USB_Device_Library/Class/CustomHID/Src/usbd_customhid.c **** 
 540:Middlewares/ST/STM32_USB_Device_Library/Class/CustomHID/Src/usbd_customhid.c **** /* USB Standard Device Descriptor */
 541:Middlewares/ST/STM32_USB_Device_Library/Class/CustomHID/Src/usbd_customhid.c **** __ALIGN_BEGIN static uint8_t USBD_CUSTOM_HID_DeviceQualifierDesc[USB_LEN_DEV_QUALIFIER_DESC] __ALIG
 542:Middlewares/ST/STM32_USB_Device_Library/Class/CustomHID/Src/usbd_customhid.c **** {
 543:Middlewares/ST/STM32_USB_Device_Library/Class/CustomHID/Src/usbd_customhid.c ****   USB_LEN_DEV_QUALIFIER_DESC,
 544:Middlewares/ST/STM32_USB_Device_Library/Class/CustomHID/Src/usbd_customhid.c ****   USB_DESC_TYPE_DEVICE_QUALIFIER,
 545:Middlewares/ST/STM32_USB_Device_Library/Class/CustomHID/Src/usbd_customhid.c ****   0x00,
ARM GAS  C:\Users\BaiJiang\AppData\Local\Temp\ccRXUetp.s 			page 11


 546:Middlewares/ST/STM32_USB_Device_Library/Class/CustomHID/Src/usbd_customhid.c ****   0x02,
 547:Middlewares/ST/STM32_USB_Device_Library/Class/CustomHID/Src/usbd_customhid.c ****   0x00,
 548:Middlewares/ST/STM32_USB_Device_Library/Class/CustomHID/Src/usbd_customhid.c ****   0x00,
 549:Middlewares/ST/STM32_USB_Device_Library/Class/CustomHID/Src/usbd_customhid.c ****   0x00,
 550:Middlewares/ST/STM32_USB_Device_Library/Class/CustomHID/Src/usbd_customhid.c ****   0x40,
 551:Middlewares/ST/STM32_USB_Device_Library/Class/CustomHID/Src/usbd_customhid.c ****   0x01,
 552:Middlewares/ST/STM32_USB_Device_Library/Class/CustomHID/Src/usbd_customhid.c ****   0x00,
 553:Middlewares/ST/STM32_USB_Device_Library/Class/CustomHID/Src/usbd_customhid.c **** };
 554:Middlewares/ST/STM32_USB_Device_Library/Class/CustomHID/Src/usbd_customhid.c **** 
 555:Middlewares/ST/STM32_USB_Device_Library/Class/CustomHID/Src/usbd_customhid.c **** /**
 556:Middlewares/ST/STM32_USB_Device_Library/Class/CustomHID/Src/usbd_customhid.c ****   * @}
 557:Middlewares/ST/STM32_USB_Device_Library/Class/CustomHID/Src/usbd_customhid.c ****   */
 558:Middlewares/ST/STM32_USB_Device_Library/Class/CustomHID/Src/usbd_customhid.c **** 
 559:Middlewares/ST/STM32_USB_Device_Library/Class/CustomHID/Src/usbd_customhid.c **** /** @defgroup USBD_CUSTOM_HID_Private_Functions
 560:Middlewares/ST/STM32_USB_Device_Library/Class/CustomHID/Src/usbd_customhid.c ****   * @{
 561:Middlewares/ST/STM32_USB_Device_Library/Class/CustomHID/Src/usbd_customhid.c ****   */
 562:Middlewares/ST/STM32_USB_Device_Library/Class/CustomHID/Src/usbd_customhid.c **** 
 563:Middlewares/ST/STM32_USB_Device_Library/Class/CustomHID/Src/usbd_customhid.c **** /**
 564:Middlewares/ST/STM32_USB_Device_Library/Class/CustomHID/Src/usbd_customhid.c ****   * @brief  USBD_CUSTOM_HID_Init
 565:Middlewares/ST/STM32_USB_Device_Library/Class/CustomHID/Src/usbd_customhid.c ****   *         Initialize the CUSTOM_HID interface
 566:Middlewares/ST/STM32_USB_Device_Library/Class/CustomHID/Src/usbd_customhid.c ****   * @param  pdev: device instance
 567:Middlewares/ST/STM32_USB_Device_Library/Class/CustomHID/Src/usbd_customhid.c ****   * @param  cfgidx: Configuration index
 568:Middlewares/ST/STM32_USB_Device_Library/Class/CustomHID/Src/usbd_customhid.c ****   * @retval status
 569:Middlewares/ST/STM32_USB_Device_Library/Class/CustomHID/Src/usbd_customhid.c ****   */
 570:Middlewares/ST/STM32_USB_Device_Library/Class/CustomHID/Src/usbd_customhid.c **** static uint8_t  USBD_CUSTOM_HID_Init(USBD_HandleTypeDef *pdev,
 571:Middlewares/ST/STM32_USB_Device_Library/Class/CustomHID/Src/usbd_customhid.c ****                                      uint8_t cfgidx)
 572:Middlewares/ST/STM32_USB_Device_Library/Class/CustomHID/Src/usbd_customhid.c **** {
 573:Middlewares/ST/STM32_USB_Device_Library/Class/CustomHID/Src/usbd_customhid.c ****   uint8_t ret = 0U;
 574:Middlewares/ST/STM32_USB_Device_Library/Class/CustomHID/Src/usbd_customhid.c ****   USBD_CUSTOM_HID_HandleTypeDef     *hhid;
 575:Middlewares/ST/STM32_USB_Device_Library/Class/CustomHID/Src/usbd_customhid.c **** 
 576:Middlewares/ST/STM32_USB_Device_Library/Class/CustomHID/Src/usbd_customhid.c ****   /* Open EP IN */
 577:Middlewares/ST/STM32_USB_Device_Library/Class/CustomHID/Src/usbd_customhid.c ****   USBD_LL_OpenEP(pdev, CUSTOM_HID_EPIN_ADDR, USBD_EP_TYPE_INTR,
 578:Middlewares/ST/STM32_USB_Device_Library/Class/CustomHID/Src/usbd_customhid.c ****                  CUSTOM_HID_EPIN_SIZE);
 579:Middlewares/ST/STM32_USB_Device_Library/Class/CustomHID/Src/usbd_customhid.c **** 
 580:Middlewares/ST/STM32_USB_Device_Library/Class/CustomHID/Src/usbd_customhid.c ****   pdev->ep_in[CUSTOM_HID_EPIN_ADDR & 0xFU].is_used = 1U;
 581:Middlewares/ST/STM32_USB_Device_Library/Class/CustomHID/Src/usbd_customhid.c **** 
 582:Middlewares/ST/STM32_USB_Device_Library/Class/CustomHID/Src/usbd_customhid.c ****   /* Open EP OUT */
 583:Middlewares/ST/STM32_USB_Device_Library/Class/CustomHID/Src/usbd_customhid.c ****   USBD_LL_OpenEP(pdev, CUSTOM_HID_EPOUT_ADDR, USBD_EP_TYPE_INTR,
 584:Middlewares/ST/STM32_USB_Device_Library/Class/CustomHID/Src/usbd_customhid.c ****                  CUSTOM_HID_EPOUT_SIZE);
 585:Middlewares/ST/STM32_USB_Device_Library/Class/CustomHID/Src/usbd_customhid.c **** 
 586:Middlewares/ST/STM32_USB_Device_Library/Class/CustomHID/Src/usbd_customhid.c ****   pdev->ep_out[CUSTOM_HID_EPOUT_ADDR & 0xFU].is_used = 1U;
 587:Middlewares/ST/STM32_USB_Device_Library/Class/CustomHID/Src/usbd_customhid.c ****   USBD_LL_OpenEP(pdev, 0x01, USBD_EP_TYPE_INTR,
 588:Middlewares/ST/STM32_USB_Device_Library/Class/CustomHID/Src/usbd_customhid.c ****                  CUSTOM_HID_EPOUT_SIZE);
 589:Middlewares/ST/STM32_USB_Device_Library/Class/CustomHID/Src/usbd_customhid.c ****   USBD_LL_OpenEP(pdev, 0x81, USBD_EP_TYPE_INTR,
 590:Middlewares/ST/STM32_USB_Device_Library/Class/CustomHID/Src/usbd_customhid.c ****                  CUSTOM_HID_EPOUT_SIZE);
 591:Middlewares/ST/STM32_USB_Device_Library/Class/CustomHID/Src/usbd_customhid.c ****    pdev->ep_in[0x81 & 0xFU].is_used = 1U;
 592:Middlewares/ST/STM32_USB_Device_Library/Class/CustomHID/Src/usbd_customhid.c ****    pdev->ep_out[0x01 & 0xFU].is_used = 1U;
 593:Middlewares/ST/STM32_USB_Device_Library/Class/CustomHID/Src/usbd_customhid.c ****     
 594:Middlewares/ST/STM32_USB_Device_Library/Class/CustomHID/Src/usbd_customhid.c ****   USBD_LL_OpenEP(pdev, 0x02, USBD_EP_TYPE_INTR,
 595:Middlewares/ST/STM32_USB_Device_Library/Class/CustomHID/Src/usbd_customhid.c ****                  CUSTOM_HID_EPOUT_SIZE);
 596:Middlewares/ST/STM32_USB_Device_Library/Class/CustomHID/Src/usbd_customhid.c ****   USBD_LL_OpenEP(pdev, 0x82, USBD_EP_TYPE_INTR,
 597:Middlewares/ST/STM32_USB_Device_Library/Class/CustomHID/Src/usbd_customhid.c ****                  CUSTOM_HID_EPOUT_SIZE);
 598:Middlewares/ST/STM32_USB_Device_Library/Class/CustomHID/Src/usbd_customhid.c ****    pdev->ep_in[0x82 & 0xFU].is_used = 1U;
 599:Middlewares/ST/STM32_USB_Device_Library/Class/CustomHID/Src/usbd_customhid.c ****    pdev->ep_out[0x02 & 0xFU].is_used = 1U;
 600:Middlewares/ST/STM32_USB_Device_Library/Class/CustomHID/Src/usbd_customhid.c **** 
 601:Middlewares/ST/STM32_USB_Device_Library/Class/CustomHID/Src/usbd_customhid.c ****   USBD_LL_OpenEP(pdev, 0x03, USBD_EP_TYPE_INTR,
 602:Middlewares/ST/STM32_USB_Device_Library/Class/CustomHID/Src/usbd_customhid.c ****                  CUSTOM_HID_EPOUT_SIZE);
ARM GAS  C:\Users\BaiJiang\AppData\Local\Temp\ccRXUetp.s 			page 12


 603:Middlewares/ST/STM32_USB_Device_Library/Class/CustomHID/Src/usbd_customhid.c ****   USBD_LL_OpenEP(pdev, 0x83, USBD_EP_TYPE_INTR,
 604:Middlewares/ST/STM32_USB_Device_Library/Class/CustomHID/Src/usbd_customhid.c ****                  CUSTOM_HID_EPOUT_SIZE);
 605:Middlewares/ST/STM32_USB_Device_Library/Class/CustomHID/Src/usbd_customhid.c ****    pdev->ep_in[0x83 & 0xFU].is_used = 1U;
 606:Middlewares/ST/STM32_USB_Device_Library/Class/CustomHID/Src/usbd_customhid.c ****    pdev->ep_out[0x03 & 0xFU].is_used = 1U;
 607:Middlewares/ST/STM32_USB_Device_Library/Class/CustomHID/Src/usbd_customhid.c ****    
 608:Middlewares/ST/STM32_USB_Device_Library/Class/CustomHID/Src/usbd_customhid.c ****   USBD_LL_OpenEP(pdev, 0x04, USBD_EP_TYPE_INTR,
 609:Middlewares/ST/STM32_USB_Device_Library/Class/CustomHID/Src/usbd_customhid.c ****                  CUSTOM_HID_EPOUT_SIZE);
 610:Middlewares/ST/STM32_USB_Device_Library/Class/CustomHID/Src/usbd_customhid.c ****   USBD_LL_OpenEP(pdev, 0x84, USBD_EP_TYPE_INTR,
 611:Middlewares/ST/STM32_USB_Device_Library/Class/CustomHID/Src/usbd_customhid.c ****                  CUSTOM_HID_EPOUT_SIZE);
 612:Middlewares/ST/STM32_USB_Device_Library/Class/CustomHID/Src/usbd_customhid.c ****    pdev->ep_in[0x84 & 0xFU].is_used = 1U;
 613:Middlewares/ST/STM32_USB_Device_Library/Class/CustomHID/Src/usbd_customhid.c ****    pdev->ep_out[0x04 & 0xFU].is_used = 1U;
 614:Middlewares/ST/STM32_USB_Device_Library/Class/CustomHID/Src/usbd_customhid.c ****    
 615:Middlewares/ST/STM32_USB_Device_Library/Class/CustomHID/Src/usbd_customhid.c ****   USBD_LL_OpenEP(pdev, 0x05, USBD_EP_TYPE_INTR,
 616:Middlewares/ST/STM32_USB_Device_Library/Class/CustomHID/Src/usbd_customhid.c ****                  CUSTOM_HID_EPOUT_SIZE);
 617:Middlewares/ST/STM32_USB_Device_Library/Class/CustomHID/Src/usbd_customhid.c ****   USBD_LL_OpenEP(pdev, 0x85, USBD_EP_TYPE_INTR,
 618:Middlewares/ST/STM32_USB_Device_Library/Class/CustomHID/Src/usbd_customhid.c ****                  CUSTOM_HID_EPOUT_SIZE);
 619:Middlewares/ST/STM32_USB_Device_Library/Class/CustomHID/Src/usbd_customhid.c ****    pdev->ep_in[0x85 & 0xFU].is_used = 1U;
 620:Middlewares/ST/STM32_USB_Device_Library/Class/CustomHID/Src/usbd_customhid.c ****    pdev->ep_out[0x05 & 0xFU].is_used = 1U;
 621:Middlewares/ST/STM32_USB_Device_Library/Class/CustomHID/Src/usbd_customhid.c ****    
 622:Middlewares/ST/STM32_USB_Device_Library/Class/CustomHID/Src/usbd_customhid.c ****   USBD_LL_OpenEP(pdev, 0x06, USBD_EP_TYPE_INTR,
 623:Middlewares/ST/STM32_USB_Device_Library/Class/CustomHID/Src/usbd_customhid.c ****                  CUSTOM_HID_EPOUT_SIZE);
 624:Middlewares/ST/STM32_USB_Device_Library/Class/CustomHID/Src/usbd_customhid.c ****   USBD_LL_OpenEP(pdev, 0x86, USBD_EP_TYPE_INTR,
 625:Middlewares/ST/STM32_USB_Device_Library/Class/CustomHID/Src/usbd_customhid.c ****                  CUSTOM_HID_EPOUT_SIZE);
 626:Middlewares/ST/STM32_USB_Device_Library/Class/CustomHID/Src/usbd_customhid.c ****    pdev->ep_in[0x86 & 0xFU].is_used = 1U;
 627:Middlewares/ST/STM32_USB_Device_Library/Class/CustomHID/Src/usbd_customhid.c ****    pdev->ep_out[0x06 & 0xFU].is_used = 1U;
 628:Middlewares/ST/STM32_USB_Device_Library/Class/CustomHID/Src/usbd_customhid.c ****    
 629:Middlewares/ST/STM32_USB_Device_Library/Class/CustomHID/Src/usbd_customhid.c ****   USBD_LL_OpenEP(pdev, 0x07, USBD_EP_TYPE_INTR,
 630:Middlewares/ST/STM32_USB_Device_Library/Class/CustomHID/Src/usbd_customhid.c ****                  CUSTOM_HID_EPOUT_SIZE);
 631:Middlewares/ST/STM32_USB_Device_Library/Class/CustomHID/Src/usbd_customhid.c ****   USBD_LL_OpenEP(pdev, 0x87, USBD_EP_TYPE_INTR,
 632:Middlewares/ST/STM32_USB_Device_Library/Class/CustomHID/Src/usbd_customhid.c ****                  CUSTOM_HID_EPOUT_SIZE);
 633:Middlewares/ST/STM32_USB_Device_Library/Class/CustomHID/Src/usbd_customhid.c ****    pdev->ep_in[0x87 & 0xFU].is_used = 1U;
 634:Middlewares/ST/STM32_USB_Device_Library/Class/CustomHID/Src/usbd_customhid.c ****    pdev->ep_out[0x07 & 0xFU].is_used = 1U;
 635:Middlewares/ST/STM32_USB_Device_Library/Class/CustomHID/Src/usbd_customhid.c ****   pdev->pClassData = USBD_malloc(sizeof(USBD_CUSTOM_HID_HandleTypeDef));
 636:Middlewares/ST/STM32_USB_Device_Library/Class/CustomHID/Src/usbd_customhid.c **** 
 637:Middlewares/ST/STM32_USB_Device_Library/Class/CustomHID/Src/usbd_customhid.c ****   if (pdev->pClassData == NULL)
 638:Middlewares/ST/STM32_USB_Device_Library/Class/CustomHID/Src/usbd_customhid.c ****   {
 639:Middlewares/ST/STM32_USB_Device_Library/Class/CustomHID/Src/usbd_customhid.c ****     ret = 1U;
 640:Middlewares/ST/STM32_USB_Device_Library/Class/CustomHID/Src/usbd_customhid.c ****   }
 641:Middlewares/ST/STM32_USB_Device_Library/Class/CustomHID/Src/usbd_customhid.c ****   else
 642:Middlewares/ST/STM32_USB_Device_Library/Class/CustomHID/Src/usbd_customhid.c ****   {
 643:Middlewares/ST/STM32_USB_Device_Library/Class/CustomHID/Src/usbd_customhid.c ****     hhid = (USBD_CUSTOM_HID_HandleTypeDef *) pdev->pClassData;
 644:Middlewares/ST/STM32_USB_Device_Library/Class/CustomHID/Src/usbd_customhid.c **** 
 645:Middlewares/ST/STM32_USB_Device_Library/Class/CustomHID/Src/usbd_customhid.c ****     hhid->state = CUSTOM_HID_IDLE;
 646:Middlewares/ST/STM32_USB_Device_Library/Class/CustomHID/Src/usbd_customhid.c ****     ((USBD_CUSTOM_HID_ItfTypeDef *)pdev->pUserData)->Init();
 647:Middlewares/ST/STM32_USB_Device_Library/Class/CustomHID/Src/usbd_customhid.c **** 
 648:Middlewares/ST/STM32_USB_Device_Library/Class/CustomHID/Src/usbd_customhid.c ****     /* Prepare Out endpoint to receive 1st packet */
 649:Middlewares/ST/STM32_USB_Device_Library/Class/CustomHID/Src/usbd_customhid.c ****     USBD_LL_PrepareReceive(pdev, CUSTOM_HID_EPOUT_ADDR, hhid->Report_buf,
 650:Middlewares/ST/STM32_USB_Device_Library/Class/CustomHID/Src/usbd_customhid.c ****                            USBD_CUSTOMHID_OUTREPORT_BUF_SIZE);
 651:Middlewares/ST/STM32_USB_Device_Library/Class/CustomHID/Src/usbd_customhid.c ****   }
 652:Middlewares/ST/STM32_USB_Device_Library/Class/CustomHID/Src/usbd_customhid.c **** 
 653:Middlewares/ST/STM32_USB_Device_Library/Class/CustomHID/Src/usbd_customhid.c ****   return ret;
 654:Middlewares/ST/STM32_USB_Device_Library/Class/CustomHID/Src/usbd_customhid.c **** }
 655:Middlewares/ST/STM32_USB_Device_Library/Class/CustomHID/Src/usbd_customhid.c **** 
 656:Middlewares/ST/STM32_USB_Device_Library/Class/CustomHID/Src/usbd_customhid.c **** /**
 657:Middlewares/ST/STM32_USB_Device_Library/Class/CustomHID/Src/usbd_customhid.c ****   * @brief  USBD_CUSTOM_HID_Init
 658:Middlewares/ST/STM32_USB_Device_Library/Class/CustomHID/Src/usbd_customhid.c ****   *         DeInitialize the CUSTOM_HID layer
 659:Middlewares/ST/STM32_USB_Device_Library/Class/CustomHID/Src/usbd_customhid.c ****   * @param  pdev: device instance
ARM GAS  C:\Users\BaiJiang\AppData\Local\Temp\ccRXUetp.s 			page 13


 660:Middlewares/ST/STM32_USB_Device_Library/Class/CustomHID/Src/usbd_customhid.c ****   * @param  cfgidx: Configuration index
 661:Middlewares/ST/STM32_USB_Device_Library/Class/CustomHID/Src/usbd_customhid.c ****   * @retval status
 662:Middlewares/ST/STM32_USB_Device_Library/Class/CustomHID/Src/usbd_customhid.c ****   */
 663:Middlewares/ST/STM32_USB_Device_Library/Class/CustomHID/Src/usbd_customhid.c **** static uint8_t  USBD_CUSTOM_HID_DeInit(USBD_HandleTypeDef *pdev,
 664:Middlewares/ST/STM32_USB_Device_Library/Class/CustomHID/Src/usbd_customhid.c ****                                        uint8_t cfgidx)
 665:Middlewares/ST/STM32_USB_Device_Library/Class/CustomHID/Src/usbd_customhid.c **** {
 666:Middlewares/ST/STM32_USB_Device_Library/Class/CustomHID/Src/usbd_customhid.c ****   /* Close CUSTOM_HID EP IN */
 667:Middlewares/ST/STM32_USB_Device_Library/Class/CustomHID/Src/usbd_customhid.c ****   USBD_LL_CloseEP(pdev, CUSTOM_HID_EPIN_ADDR);
 668:Middlewares/ST/STM32_USB_Device_Library/Class/CustomHID/Src/usbd_customhid.c ****   pdev->ep_in[CUSTOM_HID_EPIN_ADDR & 0xFU].is_used = 0U;
 669:Middlewares/ST/STM32_USB_Device_Library/Class/CustomHID/Src/usbd_customhid.c **** 
 670:Middlewares/ST/STM32_USB_Device_Library/Class/CustomHID/Src/usbd_customhid.c ****   /* Close CUSTOM_HID EP OUT */
 671:Middlewares/ST/STM32_USB_Device_Library/Class/CustomHID/Src/usbd_customhid.c ****   USBD_LL_CloseEP(pdev, CUSTOM_HID_EPOUT_ADDR);
 672:Middlewares/ST/STM32_USB_Device_Library/Class/CustomHID/Src/usbd_customhid.c ****   pdev->ep_out[CUSTOM_HID_EPOUT_ADDR & 0xFU].is_used = 0U;
 673:Middlewares/ST/STM32_USB_Device_Library/Class/CustomHID/Src/usbd_customhid.c **** 
 674:Middlewares/ST/STM32_USB_Device_Library/Class/CustomHID/Src/usbd_customhid.c ****   /* FRee allocated memory */
 675:Middlewares/ST/STM32_USB_Device_Library/Class/CustomHID/Src/usbd_customhid.c ****   if (pdev->pClassData != NULL)
 676:Middlewares/ST/STM32_USB_Device_Library/Class/CustomHID/Src/usbd_customhid.c ****   {
 677:Middlewares/ST/STM32_USB_Device_Library/Class/CustomHID/Src/usbd_customhid.c ****     ((USBD_CUSTOM_HID_ItfTypeDef *)pdev->pUserData)->DeInit();
 678:Middlewares/ST/STM32_USB_Device_Library/Class/CustomHID/Src/usbd_customhid.c ****     USBD_free(pdev->pClassData);
 679:Middlewares/ST/STM32_USB_Device_Library/Class/CustomHID/Src/usbd_customhid.c ****     pdev->pClassData = NULL;
 680:Middlewares/ST/STM32_USB_Device_Library/Class/CustomHID/Src/usbd_customhid.c ****   }
 681:Middlewares/ST/STM32_USB_Device_Library/Class/CustomHID/Src/usbd_customhid.c ****   return USBD_OK;
 682:Middlewares/ST/STM32_USB_Device_Library/Class/CustomHID/Src/usbd_customhid.c **** }
 683:Middlewares/ST/STM32_USB_Device_Library/Class/CustomHID/Src/usbd_customhid.c **** unsigned char vendor_request_content1[] = {0x28, 0x0, 0x0, 0x0, 0x0, 0x1, 0x4, 0x0, 0x1, 0x0, 0x0, 
 684:Middlewares/ST/STM32_USB_Device_Library/Class/CustomHID/Src/usbd_customhid.c **** extern __ALIGN_BEGIN uint8_t CUSTOM_HID_ReportDesc_FS1[USBD_CUSTOM_HID_REPORT_DESC_SIZE];
 685:Middlewares/ST/STM32_USB_Device_Library/Class/CustomHID/Src/usbd_customhid.c **** /**
 686:Middlewares/ST/STM32_USB_Device_Library/Class/CustomHID/Src/usbd_customhid.c ****   * @brief  USBD_CUSTOM_HID_Setup
 687:Middlewares/ST/STM32_USB_Device_Library/Class/CustomHID/Src/usbd_customhid.c ****   *         Handle the CUSTOM_HID specific requests
 688:Middlewares/ST/STM32_USB_Device_Library/Class/CustomHID/Src/usbd_customhid.c ****   * @param  pdev: instance
 689:Middlewares/ST/STM32_USB_Device_Library/Class/CustomHID/Src/usbd_customhid.c ****   * @param  req: usb requests
 690:Middlewares/ST/STM32_USB_Device_Library/Class/CustomHID/Src/usbd_customhid.c ****   * @retval status
 691:Middlewares/ST/STM32_USB_Device_Library/Class/CustomHID/Src/usbd_customhid.c ****   */
 692:Middlewares/ST/STM32_USB_Device_Library/Class/CustomHID/Src/usbd_customhid.c **** static uint8_t  USBD_CUSTOM_HID_Setup(USBD_HandleTypeDef *pdev,
 693:Middlewares/ST/STM32_USB_Device_Library/Class/CustomHID/Src/usbd_customhid.c ****                                       USBD_SetupReqTypedef *req)
 694:Middlewares/ST/STM32_USB_Device_Library/Class/CustomHID/Src/usbd_customhid.c **** {
 695:Middlewares/ST/STM32_USB_Device_Library/Class/CustomHID/Src/usbd_customhid.c ****   USBD_CUSTOM_HID_HandleTypeDef *hhid = (USBD_CUSTOM_HID_HandleTypeDef *)pdev->pClassData;
 696:Middlewares/ST/STM32_USB_Device_Library/Class/CustomHID/Src/usbd_customhid.c ****   uint16_t len = 0U;
 697:Middlewares/ST/STM32_USB_Device_Library/Class/CustomHID/Src/usbd_customhid.c ****   uint8_t  *pbuf = NULL;
 698:Middlewares/ST/STM32_USB_Device_Library/Class/CustomHID/Src/usbd_customhid.c ****   uint16_t status_info = 0U;
 699:Middlewares/ST/STM32_USB_Device_Library/Class/CustomHID/Src/usbd_customhid.c ****   uint8_t ret = USBD_OK;
 700:Middlewares/ST/STM32_USB_Device_Library/Class/CustomHID/Src/usbd_customhid.c **** 
 701:Middlewares/ST/STM32_USB_Device_Library/Class/CustomHID/Src/usbd_customhid.c ****   switch (req->bmRequest & USB_REQ_TYPE_MASK)
 702:Middlewares/ST/STM32_USB_Device_Library/Class/CustomHID/Src/usbd_customhid.c ****   {
 703:Middlewares/ST/STM32_USB_Device_Library/Class/CustomHID/Src/usbd_customhid.c ****     case USB_REQ_TYPE_CLASS :
 704:Middlewares/ST/STM32_USB_Device_Library/Class/CustomHID/Src/usbd_customhid.c ****       switch (req->bRequest)
 705:Middlewares/ST/STM32_USB_Device_Library/Class/CustomHID/Src/usbd_customhid.c ****       {
 706:Middlewares/ST/STM32_USB_Device_Library/Class/CustomHID/Src/usbd_customhid.c ****         case CUSTOM_HID_REQ_SET_PROTOCOL:
 707:Middlewares/ST/STM32_USB_Device_Library/Class/CustomHID/Src/usbd_customhid.c ****           hhid->Protocol = (uint8_t)(req->wValue);
 708:Middlewares/ST/STM32_USB_Device_Library/Class/CustomHID/Src/usbd_customhid.c ****           break;
 709:Middlewares/ST/STM32_USB_Device_Library/Class/CustomHID/Src/usbd_customhid.c **** 
 710:Middlewares/ST/STM32_USB_Device_Library/Class/CustomHID/Src/usbd_customhid.c ****         case CUSTOM_HID_REQ_GET_PROTOCOL:
 711:Middlewares/ST/STM32_USB_Device_Library/Class/CustomHID/Src/usbd_customhid.c ****           USBD_CtlSendData(pdev, (uint8_t *)(void *)&hhid->Protocol, 1U);
 712:Middlewares/ST/STM32_USB_Device_Library/Class/CustomHID/Src/usbd_customhid.c ****           break;
 713:Middlewares/ST/STM32_USB_Device_Library/Class/CustomHID/Src/usbd_customhid.c **** 
 714:Middlewares/ST/STM32_USB_Device_Library/Class/CustomHID/Src/usbd_customhid.c ****         case CUSTOM_HID_REQ_SET_IDLE:
 715:Middlewares/ST/STM32_USB_Device_Library/Class/CustomHID/Src/usbd_customhid.c ****           hhid->IdleState = (uint8_t)(req->wValue >> 8);
 716:Middlewares/ST/STM32_USB_Device_Library/Class/CustomHID/Src/usbd_customhid.c ****           break;
ARM GAS  C:\Users\BaiJiang\AppData\Local\Temp\ccRXUetp.s 			page 14


 717:Middlewares/ST/STM32_USB_Device_Library/Class/CustomHID/Src/usbd_customhid.c **** 
 718:Middlewares/ST/STM32_USB_Device_Library/Class/CustomHID/Src/usbd_customhid.c ****         case CUSTOM_HID_REQ_GET_IDLE:
 719:Middlewares/ST/STM32_USB_Device_Library/Class/CustomHID/Src/usbd_customhid.c ****           USBD_CtlSendData(pdev, (uint8_t *)(void *)&hhid->IdleState, 1U);
 720:Middlewares/ST/STM32_USB_Device_Library/Class/CustomHID/Src/usbd_customhid.c ****           break;
 721:Middlewares/ST/STM32_USB_Device_Library/Class/CustomHID/Src/usbd_customhid.c **** 
 722:Middlewares/ST/STM32_USB_Device_Library/Class/CustomHID/Src/usbd_customhid.c ****         case CUSTOM_HID_REQ_SET_REPORT:
 723:Middlewares/ST/STM32_USB_Device_Library/Class/CustomHID/Src/usbd_customhid.c ****           hhid->IsReportAvailable = 1U;
 724:Middlewares/ST/STM32_USB_Device_Library/Class/CustomHID/Src/usbd_customhid.c ****           USBD_CtlPrepareRx(pdev, hhid->Report_buf, req->wLength);
 725:Middlewares/ST/STM32_USB_Device_Library/Class/CustomHID/Src/usbd_customhid.c ****           break;
 726:Middlewares/ST/STM32_USB_Device_Library/Class/CustomHID/Src/usbd_customhid.c **** 
 727:Middlewares/ST/STM32_USB_Device_Library/Class/CustomHID/Src/usbd_customhid.c ****         default:
 728:Middlewares/ST/STM32_USB_Device_Library/Class/CustomHID/Src/usbd_customhid.c ****           USBD_CtlError(pdev, req);
 729:Middlewares/ST/STM32_USB_Device_Library/Class/CustomHID/Src/usbd_customhid.c ****           ret = USBD_FAIL;
 730:Middlewares/ST/STM32_USB_Device_Library/Class/CustomHID/Src/usbd_customhid.c ****           break;
 731:Middlewares/ST/STM32_USB_Device_Library/Class/CustomHID/Src/usbd_customhid.c ****       }
 732:Middlewares/ST/STM32_USB_Device_Library/Class/CustomHID/Src/usbd_customhid.c ****       break;
 733:Middlewares/ST/STM32_USB_Device_Library/Class/CustomHID/Src/usbd_customhid.c **** 
 734:Middlewares/ST/STM32_USB_Device_Library/Class/CustomHID/Src/usbd_customhid.c ****     case USB_REQ_TYPE_STANDARD:
 735:Middlewares/ST/STM32_USB_Device_Library/Class/CustomHID/Src/usbd_customhid.c ****       switch (req->bRequest)
 736:Middlewares/ST/STM32_USB_Device_Library/Class/CustomHID/Src/usbd_customhid.c ****       {
 737:Middlewares/ST/STM32_USB_Device_Library/Class/CustomHID/Src/usbd_customhid.c ****         case USB_REQ_GET_STATUS:
 738:Middlewares/ST/STM32_USB_Device_Library/Class/CustomHID/Src/usbd_customhid.c ****           if (pdev->dev_state == USBD_STATE_CONFIGURED)
 739:Middlewares/ST/STM32_USB_Device_Library/Class/CustomHID/Src/usbd_customhid.c ****           {
 740:Middlewares/ST/STM32_USB_Device_Library/Class/CustomHID/Src/usbd_customhid.c ****             USBD_CtlSendData(pdev, (uint8_t *)(void *)&status_info, 2U);
 741:Middlewares/ST/STM32_USB_Device_Library/Class/CustomHID/Src/usbd_customhid.c ****           }
 742:Middlewares/ST/STM32_USB_Device_Library/Class/CustomHID/Src/usbd_customhid.c ****           else
 743:Middlewares/ST/STM32_USB_Device_Library/Class/CustomHID/Src/usbd_customhid.c ****           {
 744:Middlewares/ST/STM32_USB_Device_Library/Class/CustomHID/Src/usbd_customhid.c ****             USBD_CtlError(pdev, req);
 745:Middlewares/ST/STM32_USB_Device_Library/Class/CustomHID/Src/usbd_customhid.c ****             ret = USBD_FAIL;
 746:Middlewares/ST/STM32_USB_Device_Library/Class/CustomHID/Src/usbd_customhid.c ****           }
 747:Middlewares/ST/STM32_USB_Device_Library/Class/CustomHID/Src/usbd_customhid.c ****           break;
 748:Middlewares/ST/STM32_USB_Device_Library/Class/CustomHID/Src/usbd_customhid.c **** 
 749:Middlewares/ST/STM32_USB_Device_Library/Class/CustomHID/Src/usbd_customhid.c ****         case USB_REQ_GET_DESCRIPTOR:
 750:Middlewares/ST/STM32_USB_Device_Library/Class/CustomHID/Src/usbd_customhid.c ****           if (req->wValue >> 8 == CUSTOM_HID_REPORT_DESC)
 751:Middlewares/ST/STM32_USB_Device_Library/Class/CustomHID/Src/usbd_customhid.c ****           {
 752:Middlewares/ST/STM32_USB_Device_Library/Class/CustomHID/Src/usbd_customhid.c ****                if(req->wIndex == 1)
 753:Middlewares/ST/STM32_USB_Device_Library/Class/CustomHID/Src/usbd_customhid.c ****               {
 754:Middlewares/ST/STM32_USB_Device_Library/Class/CustomHID/Src/usbd_customhid.c ****                     len = MIN(USBD_CUSTOM_HID_REPORT_DESC_SIZE, req->wLength);
 755:Middlewares/ST/STM32_USB_Device_Library/Class/CustomHID/Src/usbd_customhid.c ****                     pbuf = CUSTOM_HID_ReportDesc_FS1;
 756:Middlewares/ST/STM32_USB_Device_Library/Class/CustomHID/Src/usbd_customhid.c ****               }
 757:Middlewares/ST/STM32_USB_Device_Library/Class/CustomHID/Src/usbd_customhid.c ****           }
 758:Middlewares/ST/STM32_USB_Device_Library/Class/CustomHID/Src/usbd_customhid.c ****           else
 759:Middlewares/ST/STM32_USB_Device_Library/Class/CustomHID/Src/usbd_customhid.c ****           {
 760:Middlewares/ST/STM32_USB_Device_Library/Class/CustomHID/Src/usbd_customhid.c ****             if (req->wValue >> 8 == CUSTOM_HID_DESCRIPTOR_TYPE)
 761:Middlewares/ST/STM32_USB_Device_Library/Class/CustomHID/Src/usbd_customhid.c ****             {
 762:Middlewares/ST/STM32_USB_Device_Library/Class/CustomHID/Src/usbd_customhid.c ****               pbuf = USBD_CUSTOM_HID_Desc;
 763:Middlewares/ST/STM32_USB_Device_Library/Class/CustomHID/Src/usbd_customhid.c ****               len = MIN(USB_CUSTOM_HID_DESC_SIZ, req->wLength);
 764:Middlewares/ST/STM32_USB_Device_Library/Class/CustomHID/Src/usbd_customhid.c ****             }
 765:Middlewares/ST/STM32_USB_Device_Library/Class/CustomHID/Src/usbd_customhid.c ****           }
 766:Middlewares/ST/STM32_USB_Device_Library/Class/CustomHID/Src/usbd_customhid.c **** 
 767:Middlewares/ST/STM32_USB_Device_Library/Class/CustomHID/Src/usbd_customhid.c ****           USBD_CtlSendData(pdev, pbuf, len);
 768:Middlewares/ST/STM32_USB_Device_Library/Class/CustomHID/Src/usbd_customhid.c ****           break;
 769:Middlewares/ST/STM32_USB_Device_Library/Class/CustomHID/Src/usbd_customhid.c **** 
 770:Middlewares/ST/STM32_USB_Device_Library/Class/CustomHID/Src/usbd_customhid.c ****         case USB_REQ_GET_INTERFACE :
 771:Middlewares/ST/STM32_USB_Device_Library/Class/CustomHID/Src/usbd_customhid.c ****           if (pdev->dev_state == USBD_STATE_CONFIGURED)
 772:Middlewares/ST/STM32_USB_Device_Library/Class/CustomHID/Src/usbd_customhid.c ****           {
 773:Middlewares/ST/STM32_USB_Device_Library/Class/CustomHID/Src/usbd_customhid.c ****             USBD_CtlSendData(pdev, (uint8_t *)(void *)&hhid->AltSetting, 1U);
ARM GAS  C:\Users\BaiJiang\AppData\Local\Temp\ccRXUetp.s 			page 15


 774:Middlewares/ST/STM32_USB_Device_Library/Class/CustomHID/Src/usbd_customhid.c ****           }
 775:Middlewares/ST/STM32_USB_Device_Library/Class/CustomHID/Src/usbd_customhid.c ****           else
 776:Middlewares/ST/STM32_USB_Device_Library/Class/CustomHID/Src/usbd_customhid.c ****           {
 777:Middlewares/ST/STM32_USB_Device_Library/Class/CustomHID/Src/usbd_customhid.c ****             USBD_CtlError(pdev, req);
 778:Middlewares/ST/STM32_USB_Device_Library/Class/CustomHID/Src/usbd_customhid.c ****             ret = USBD_FAIL;
 779:Middlewares/ST/STM32_USB_Device_Library/Class/CustomHID/Src/usbd_customhid.c ****           }
 780:Middlewares/ST/STM32_USB_Device_Library/Class/CustomHID/Src/usbd_customhid.c ****           break;
 781:Middlewares/ST/STM32_USB_Device_Library/Class/CustomHID/Src/usbd_customhid.c **** 
 782:Middlewares/ST/STM32_USB_Device_Library/Class/CustomHID/Src/usbd_customhid.c ****         case USB_REQ_SET_INTERFACE :
 783:Middlewares/ST/STM32_USB_Device_Library/Class/CustomHID/Src/usbd_customhid.c ****           if (pdev->dev_state == USBD_STATE_CONFIGURED)
 784:Middlewares/ST/STM32_USB_Device_Library/Class/CustomHID/Src/usbd_customhid.c ****           {
 785:Middlewares/ST/STM32_USB_Device_Library/Class/CustomHID/Src/usbd_customhid.c ****             hhid->AltSetting = (uint8_t)(req->wValue);
 786:Middlewares/ST/STM32_USB_Device_Library/Class/CustomHID/Src/usbd_customhid.c ****           }
 787:Middlewares/ST/STM32_USB_Device_Library/Class/CustomHID/Src/usbd_customhid.c ****           else
 788:Middlewares/ST/STM32_USB_Device_Library/Class/CustomHID/Src/usbd_customhid.c ****           {
 789:Middlewares/ST/STM32_USB_Device_Library/Class/CustomHID/Src/usbd_customhid.c ****             USBD_CtlError(pdev, req);
 790:Middlewares/ST/STM32_USB_Device_Library/Class/CustomHID/Src/usbd_customhid.c ****             ret = USBD_FAIL;
 791:Middlewares/ST/STM32_USB_Device_Library/Class/CustomHID/Src/usbd_customhid.c ****           }
 792:Middlewares/ST/STM32_USB_Device_Library/Class/CustomHID/Src/usbd_customhid.c ****           break;
 793:Middlewares/ST/STM32_USB_Device_Library/Class/CustomHID/Src/usbd_customhid.c **** 
 794:Middlewares/ST/STM32_USB_Device_Library/Class/CustomHID/Src/usbd_customhid.c ****         default:
 795:Middlewares/ST/STM32_USB_Device_Library/Class/CustomHID/Src/usbd_customhid.c ****           USBD_CtlError(pdev, req);
 796:Middlewares/ST/STM32_USB_Device_Library/Class/CustomHID/Src/usbd_customhid.c ****           ret = USBD_FAIL;
 797:Middlewares/ST/STM32_USB_Device_Library/Class/CustomHID/Src/usbd_customhid.c ****           break;
 798:Middlewares/ST/STM32_USB_Device_Library/Class/CustomHID/Src/usbd_customhid.c ****       }
 799:Middlewares/ST/STM32_USB_Device_Library/Class/CustomHID/Src/usbd_customhid.c ****       break;
 800:Middlewares/ST/STM32_USB_Device_Library/Class/CustomHID/Src/usbd_customhid.c **** 
 801:Middlewares/ST/STM32_USB_Device_Library/Class/CustomHID/Src/usbd_customhid.c **** case USB_REQ_TYPE_VENDOR:
 802:Middlewares/ST/STM32_USB_Device_Library/Class/CustomHID/Src/usbd_customhid.c ****  
 803:Middlewares/ST/STM32_USB_Device_Library/Class/CustomHID/Src/usbd_customhid.c ****         switch (req->bRequest)
 804:Middlewares/ST/STM32_USB_Device_Library/Class/CustomHID/Src/usbd_customhid.c ****  
 805:Middlewares/ST/STM32_USB_Device_Library/Class/CustomHID/Src/usbd_customhid.c ****         {
 806:Middlewares/ST/STM32_USB_Device_Library/Class/CustomHID/Src/usbd_customhid.c ****  
 807:Middlewares/ST/STM32_USB_Device_Library/Class/CustomHID/Src/usbd_customhid.c ****         case 0x90:
 808:Middlewares/ST/STM32_USB_Device_Library/Class/CustomHID/Src/usbd_customhid.c ****  
 809:Middlewares/ST/STM32_USB_Device_Library/Class/CustomHID/Src/usbd_customhid.c ****         {
 810:Middlewares/ST/STM32_USB_Device_Library/Class/CustomHID/Src/usbd_customhid.c ****             /* code */
 811:Middlewares/ST/STM32_USB_Device_Library/Class/CustomHID/Src/usbd_customhid.c ****                  len  = MIN(40, req->wLength);
 812:Middlewares/ST/STM32_USB_Device_Library/Class/CustomHID/Src/usbd_customhid.c **** 
 813:Middlewares/ST/STM32_USB_Device_Library/Class/CustomHID/Src/usbd_customhid.c ****                 pbuf = vendor_request_content1;
 814:Middlewares/ST/STM32_USB_Device_Library/Class/CustomHID/Src/usbd_customhid.c ****             break;
 815:Middlewares/ST/STM32_USB_Device_Library/Class/CustomHID/Src/usbd_customhid.c ****  
 816:Middlewares/ST/STM32_USB_Device_Library/Class/CustomHID/Src/usbd_customhid.c ****         }
 817:Middlewares/ST/STM32_USB_Device_Library/Class/CustomHID/Src/usbd_customhid.c ****         default :  break;
 818:Middlewares/ST/STM32_USB_Device_Library/Class/CustomHID/Src/usbd_customhid.c ****     }
 819:Middlewares/ST/STM32_USB_Device_Library/Class/CustomHID/Src/usbd_customhid.c ****         USBD_CtlSendData(pdev, pbuf, len);
 820:Middlewares/ST/STM32_USB_Device_Library/Class/CustomHID/Src/usbd_customhid.c ****  
 821:Middlewares/ST/STM32_USB_Device_Library/Class/CustomHID/Src/usbd_customhid.c ****         break;
 822:Middlewares/ST/STM32_USB_Device_Library/Class/CustomHID/Src/usbd_customhid.c ****  
 823:Middlewares/ST/STM32_USB_Device_Library/Class/CustomHID/Src/usbd_customhid.c ****     default:
 824:Middlewares/ST/STM32_USB_Device_Library/Class/CustomHID/Src/usbd_customhid.c ****       USBD_CtlError(pdev, req);
 825:Middlewares/ST/STM32_USB_Device_Library/Class/CustomHID/Src/usbd_customhid.c ****       ret = USBD_FAIL;
 826:Middlewares/ST/STM32_USB_Device_Library/Class/CustomHID/Src/usbd_customhid.c ****       break;
 827:Middlewares/ST/STM32_USB_Device_Library/Class/CustomHID/Src/usbd_customhid.c ****   }
 828:Middlewares/ST/STM32_USB_Device_Library/Class/CustomHID/Src/usbd_customhid.c ****   return ret;
 829:Middlewares/ST/STM32_USB_Device_Library/Class/CustomHID/Src/usbd_customhid.c **** }
 830:Middlewares/ST/STM32_USB_Device_Library/Class/CustomHID/Src/usbd_customhid.c **** 
ARM GAS  C:\Users\BaiJiang\AppData\Local\Temp\ccRXUetp.s 			page 16


 831:Middlewares/ST/STM32_USB_Device_Library/Class/CustomHID/Src/usbd_customhid.c **** uint8_t USBD_CUSTOM_HID_SendReport_ep(USBD_HandleTypeDef  *pdev,
 832:Middlewares/ST/STM32_USB_Device_Library/Class/CustomHID/Src/usbd_customhid.c ****                                    uint8_t *report,
 833:Middlewares/ST/STM32_USB_Device_Library/Class/CustomHID/Src/usbd_customhid.c ****                                    uint16_t len,uint8_t ep)
 834:Middlewares/ST/STM32_USB_Device_Library/Class/CustomHID/Src/usbd_customhid.c **** {
 835:Middlewares/ST/STM32_USB_Device_Library/Class/CustomHID/Src/usbd_customhid.c ****   USBD_CUSTOM_HID_HandleTypeDef     *hhid = (USBD_CUSTOM_HID_HandleTypeDef *)pdev->pClassData;
 836:Middlewares/ST/STM32_USB_Device_Library/Class/CustomHID/Src/usbd_customhid.c **** 
 837:Middlewares/ST/STM32_USB_Device_Library/Class/CustomHID/Src/usbd_customhid.c ****   if (pdev->dev_state == USBD_STATE_CONFIGURED)
 838:Middlewares/ST/STM32_USB_Device_Library/Class/CustomHID/Src/usbd_customhid.c ****   {
 839:Middlewares/ST/STM32_USB_Device_Library/Class/CustomHID/Src/usbd_customhid.c ****     if (hhid->state == CUSTOM_HID_IDLE)
 840:Middlewares/ST/STM32_USB_Device_Library/Class/CustomHID/Src/usbd_customhid.c ****     {
 841:Middlewares/ST/STM32_USB_Device_Library/Class/CustomHID/Src/usbd_customhid.c ****       hhid->state = CUSTOM_HID_BUSY;
 842:Middlewares/ST/STM32_USB_Device_Library/Class/CustomHID/Src/usbd_customhid.c ****       USBD_LL_Transmit(pdev, ep, report, len);
 843:Middlewares/ST/STM32_USB_Device_Library/Class/CustomHID/Src/usbd_customhid.c ****     }
 844:Middlewares/ST/STM32_USB_Device_Library/Class/CustomHID/Src/usbd_customhid.c ****     else
 845:Middlewares/ST/STM32_USB_Device_Library/Class/CustomHID/Src/usbd_customhid.c ****     {
 846:Middlewares/ST/STM32_USB_Device_Library/Class/CustomHID/Src/usbd_customhid.c ****       return USBD_BUSY;
 847:Middlewares/ST/STM32_USB_Device_Library/Class/CustomHID/Src/usbd_customhid.c ****     }
 848:Middlewares/ST/STM32_USB_Device_Library/Class/CustomHID/Src/usbd_customhid.c ****   }
 849:Middlewares/ST/STM32_USB_Device_Library/Class/CustomHID/Src/usbd_customhid.c ****   return USBD_OK;
 850:Middlewares/ST/STM32_USB_Device_Library/Class/CustomHID/Src/usbd_customhid.c **** }
 851:Middlewares/ST/STM32_USB_Device_Library/Class/CustomHID/Src/usbd_customhid.c **** /**
 852:Middlewares/ST/STM32_USB_Device_Library/Class/CustomHID/Src/usbd_customhid.c ****   * @brief  USBD_CUSTOM_HID_SendReport
 853:Middlewares/ST/STM32_USB_Device_Library/Class/CustomHID/Src/usbd_customhid.c ****   *         Send CUSTOM_HID Report
 854:Middlewares/ST/STM32_USB_Device_Library/Class/CustomHID/Src/usbd_customhid.c ****   * @param  pdev: device instance
 855:Middlewares/ST/STM32_USB_Device_Library/Class/CustomHID/Src/usbd_customhid.c ****   * @param  buff: pointer to report
 856:Middlewares/ST/STM32_USB_Device_Library/Class/CustomHID/Src/usbd_customhid.c ****   * @retval status
 857:Middlewares/ST/STM32_USB_Device_Library/Class/CustomHID/Src/usbd_customhid.c ****   */
 858:Middlewares/ST/STM32_USB_Device_Library/Class/CustomHID/Src/usbd_customhid.c **** uint8_t USBD_CUSTOM_HID_SendReport(USBD_HandleTypeDef  *pdev,
 859:Middlewares/ST/STM32_USB_Device_Library/Class/CustomHID/Src/usbd_customhid.c ****                                    uint8_t *report,
 860:Middlewares/ST/STM32_USB_Device_Library/Class/CustomHID/Src/usbd_customhid.c ****                                    uint16_t len)
 861:Middlewares/ST/STM32_USB_Device_Library/Class/CustomHID/Src/usbd_customhid.c **** {
 862:Middlewares/ST/STM32_USB_Device_Library/Class/CustomHID/Src/usbd_customhid.c ****   USBD_CUSTOM_HID_HandleTypeDef     *hhid = (USBD_CUSTOM_HID_HandleTypeDef *)pdev->pClassData;
 863:Middlewares/ST/STM32_USB_Device_Library/Class/CustomHID/Src/usbd_customhid.c **** 
 864:Middlewares/ST/STM32_USB_Device_Library/Class/CustomHID/Src/usbd_customhid.c ****   if (pdev->dev_state == USBD_STATE_CONFIGURED)
 865:Middlewares/ST/STM32_USB_Device_Library/Class/CustomHID/Src/usbd_customhid.c ****   {
 866:Middlewares/ST/STM32_USB_Device_Library/Class/CustomHID/Src/usbd_customhid.c ****     if (hhid->state == CUSTOM_HID_IDLE)
 867:Middlewares/ST/STM32_USB_Device_Library/Class/CustomHID/Src/usbd_customhid.c ****     {
 868:Middlewares/ST/STM32_USB_Device_Library/Class/CustomHID/Src/usbd_customhid.c ****       hhid->state = CUSTOM_HID_BUSY;
 869:Middlewares/ST/STM32_USB_Device_Library/Class/CustomHID/Src/usbd_customhid.c ****       USBD_LL_Transmit(pdev, CUSTOM_HID_EPIN_ADDR, report, len);
 870:Middlewares/ST/STM32_USB_Device_Library/Class/CustomHID/Src/usbd_customhid.c ****     }
 871:Middlewares/ST/STM32_USB_Device_Library/Class/CustomHID/Src/usbd_customhid.c ****     else
 872:Middlewares/ST/STM32_USB_Device_Library/Class/CustomHID/Src/usbd_customhid.c ****     {
 873:Middlewares/ST/STM32_USB_Device_Library/Class/CustomHID/Src/usbd_customhid.c ****       return USBD_BUSY;
 874:Middlewares/ST/STM32_USB_Device_Library/Class/CustomHID/Src/usbd_customhid.c ****     }
 875:Middlewares/ST/STM32_USB_Device_Library/Class/CustomHID/Src/usbd_customhid.c ****   }
 876:Middlewares/ST/STM32_USB_Device_Library/Class/CustomHID/Src/usbd_customhid.c ****   return USBD_OK;
 877:Middlewares/ST/STM32_USB_Device_Library/Class/CustomHID/Src/usbd_customhid.c **** }
 878:Middlewares/ST/STM32_USB_Device_Library/Class/CustomHID/Src/usbd_customhid.c **** 
 879:Middlewares/ST/STM32_USB_Device_Library/Class/CustomHID/Src/usbd_customhid.c **** /**
 880:Middlewares/ST/STM32_USB_Device_Library/Class/CustomHID/Src/usbd_customhid.c ****   * @brief  USBD_CUSTOM_HID_GetFSCfgDesc
 881:Middlewares/ST/STM32_USB_Device_Library/Class/CustomHID/Src/usbd_customhid.c ****   *         return FS configuration descriptor
 882:Middlewares/ST/STM32_USB_Device_Library/Class/CustomHID/Src/usbd_customhid.c ****   * @param  speed : current device speed
 883:Middlewares/ST/STM32_USB_Device_Library/Class/CustomHID/Src/usbd_customhid.c ****   * @param  length : pointer data length
 884:Middlewares/ST/STM32_USB_Device_Library/Class/CustomHID/Src/usbd_customhid.c ****   * @retval pointer to descriptor buffer
 885:Middlewares/ST/STM32_USB_Device_Library/Class/CustomHID/Src/usbd_customhid.c ****   */
 886:Middlewares/ST/STM32_USB_Device_Library/Class/CustomHID/Src/usbd_customhid.c **** static uint8_t  *USBD_CUSTOM_HID_GetFSCfgDesc(uint16_t *length)
 887:Middlewares/ST/STM32_USB_Device_Library/Class/CustomHID/Src/usbd_customhid.c **** {
ARM GAS  C:\Users\BaiJiang\AppData\Local\Temp\ccRXUetp.s 			page 17


  27              		.loc 1 887 1 view -0
  28              		.cfi_startproc
  29              		@ args = 0, pretend = 0, frame = 0
  30              		@ frame_needed = 0, uses_anonymous_args = 0
  31              		@ link register save eliminated.
 888:Middlewares/ST/STM32_USB_Device_Library/Class/CustomHID/Src/usbd_customhid.c ****   *length = sizeof(USBD_CUSTOM_HID_CfgFSDesc);
  32              		.loc 1 888 3 view .LVU1
  33              		.loc 1 888 11 is_stmt 0 view .LVU2
  34 0000 8B23     		movs	r3, #139
  35 0002 0380     		strh	r3, [r0]	@ movhi
 889:Middlewares/ST/STM32_USB_Device_Library/Class/CustomHID/Src/usbd_customhid.c ****   return USBD_CUSTOM_HID_CfgFSDesc;
  36              		.loc 1 889 3 is_stmt 1 view .LVU3
 890:Middlewares/ST/STM32_USB_Device_Library/Class/CustomHID/Src/usbd_customhid.c **** }
  37              		.loc 1 890 1 is_stmt 0 view .LVU4
  38 0004 0048     		ldr	r0, .L2
  39              	.LVL1:
  40              		.loc 1 890 1 view .LVU5
  41 0006 7047     		bx	lr
  42              	.L3:
  43              		.align	2
  44              	.L2:
  45 0008 00000000 		.word	USBD_CUSTOM_HID_CfgFSDesc
  46              		.cfi_endproc
  47              	.LFE73:
  49              		.section	.text.USBD_CUSTOM_HID_GetHSCfgDesc,"ax",%progbits
  50              		.align	1
  51              		.syntax unified
  52              		.thumb
  53              		.thumb_func
  55              	USBD_CUSTOM_HID_GetHSCfgDesc:
  56              	.LVL2:
  57              	.LFB74:
 891:Middlewares/ST/STM32_USB_Device_Library/Class/CustomHID/Src/usbd_customhid.c **** 
 892:Middlewares/ST/STM32_USB_Device_Library/Class/CustomHID/Src/usbd_customhid.c **** /**
 893:Middlewares/ST/STM32_USB_Device_Library/Class/CustomHID/Src/usbd_customhid.c ****   * @brief  USBD_CUSTOM_HID_GetHSCfgDesc
 894:Middlewares/ST/STM32_USB_Device_Library/Class/CustomHID/Src/usbd_customhid.c ****   *         return HS configuration descriptor
 895:Middlewares/ST/STM32_USB_Device_Library/Class/CustomHID/Src/usbd_customhid.c ****   * @param  speed : current device speed
 896:Middlewares/ST/STM32_USB_Device_Library/Class/CustomHID/Src/usbd_customhid.c ****   * @param  length : pointer data length
 897:Middlewares/ST/STM32_USB_Device_Library/Class/CustomHID/Src/usbd_customhid.c ****   * @retval pointer to descriptor buffer
 898:Middlewares/ST/STM32_USB_Device_Library/Class/CustomHID/Src/usbd_customhid.c ****   */
 899:Middlewares/ST/STM32_USB_Device_Library/Class/CustomHID/Src/usbd_customhid.c **** static uint8_t  *USBD_CUSTOM_HID_GetHSCfgDesc(uint16_t *length)
 900:Middlewares/ST/STM32_USB_Device_Library/Class/CustomHID/Src/usbd_customhid.c **** {
  58              		.loc 1 900 1 is_stmt 1 view -0
  59              		.cfi_startproc
  60              		@ args = 0, pretend = 0, frame = 0
  61              		@ frame_needed = 0, uses_anonymous_args = 0
  62              		@ link register save eliminated.
 901:Middlewares/ST/STM32_USB_Device_Library/Class/CustomHID/Src/usbd_customhid.c ****   *length = sizeof(USBD_CUSTOM_HID_CfgHSDesc);
  63              		.loc 1 901 3 view .LVU7
  64              		.loc 1 901 11 is_stmt 0 view .LVU8
  65 0000 8B23     		movs	r3, #139
  66 0002 0380     		strh	r3, [r0]	@ movhi
 902:Middlewares/ST/STM32_USB_Device_Library/Class/CustomHID/Src/usbd_customhid.c ****   return USBD_CUSTOM_HID_CfgHSDesc;
  67              		.loc 1 902 3 is_stmt 1 view .LVU9
 903:Middlewares/ST/STM32_USB_Device_Library/Class/CustomHID/Src/usbd_customhid.c **** }
  68              		.loc 1 903 1 is_stmt 0 view .LVU10
  69 0004 0048     		ldr	r0, .L5
ARM GAS  C:\Users\BaiJiang\AppData\Local\Temp\ccRXUetp.s 			page 18


  70              	.LVL3:
  71              		.loc 1 903 1 view .LVU11
  72 0006 7047     		bx	lr
  73              	.L6:
  74              		.align	2
  75              	.L5:
  76 0008 00000000 		.word	USBD_CUSTOM_HID_CfgHSDesc
  77              		.cfi_endproc
  78              	.LFE74:
  80              		.section	.text.USBD_CUSTOM_HID_GetOtherSpeedCfgDesc,"ax",%progbits
  81              		.align	1
  82              		.syntax unified
  83              		.thumb
  84              		.thumb_func
  86              	USBD_CUSTOM_HID_GetOtherSpeedCfgDesc:
  87              	.LVL4:
  88              	.LFB75:
 904:Middlewares/ST/STM32_USB_Device_Library/Class/CustomHID/Src/usbd_customhid.c **** 
 905:Middlewares/ST/STM32_USB_Device_Library/Class/CustomHID/Src/usbd_customhid.c **** /**
 906:Middlewares/ST/STM32_USB_Device_Library/Class/CustomHID/Src/usbd_customhid.c ****   * @brief  USBD_CUSTOM_HID_GetOtherSpeedCfgDesc
 907:Middlewares/ST/STM32_USB_Device_Library/Class/CustomHID/Src/usbd_customhid.c ****   *         return other speed configuration descriptor
 908:Middlewares/ST/STM32_USB_Device_Library/Class/CustomHID/Src/usbd_customhid.c ****   * @param  speed : current device speed
 909:Middlewares/ST/STM32_USB_Device_Library/Class/CustomHID/Src/usbd_customhid.c ****   * @param  length : pointer data length
 910:Middlewares/ST/STM32_USB_Device_Library/Class/CustomHID/Src/usbd_customhid.c ****   * @retval pointer to descriptor buffer
 911:Middlewares/ST/STM32_USB_Device_Library/Class/CustomHID/Src/usbd_customhid.c ****   */
 912:Middlewares/ST/STM32_USB_Device_Library/Class/CustomHID/Src/usbd_customhid.c **** static uint8_t  *USBD_CUSTOM_HID_GetOtherSpeedCfgDesc(uint16_t *length)
 913:Middlewares/ST/STM32_USB_Device_Library/Class/CustomHID/Src/usbd_customhid.c **** {
  89              		.loc 1 913 1 is_stmt 1 view -0
  90              		.cfi_startproc
  91              		@ args = 0, pretend = 0, frame = 0
  92              		@ frame_needed = 0, uses_anonymous_args = 0
  93              		@ link register save eliminated.
 914:Middlewares/ST/STM32_USB_Device_Library/Class/CustomHID/Src/usbd_customhid.c ****   *length = sizeof(USBD_CUSTOM_HID_OtherSpeedCfgDesc);
  94              		.loc 1 914 3 view .LVU13
  95              		.loc 1 914 11 is_stmt 0 view .LVU14
  96 0000 8B23     		movs	r3, #139
  97 0002 0380     		strh	r3, [r0]	@ movhi
 915:Middlewares/ST/STM32_USB_Device_Library/Class/CustomHID/Src/usbd_customhid.c ****   return USBD_CUSTOM_HID_OtherSpeedCfgDesc;
  98              		.loc 1 915 3 is_stmt 1 view .LVU15
 916:Middlewares/ST/STM32_USB_Device_Library/Class/CustomHID/Src/usbd_customhid.c **** }
  99              		.loc 1 916 1 is_stmt 0 view .LVU16
 100 0004 0048     		ldr	r0, .L8
 101              	.LVL5:
 102              		.loc 1 916 1 view .LVU17
 103 0006 7047     		bx	lr
 104              	.L9:
 105              		.align	2
 106              	.L8:
 107 0008 00000000 		.word	USBD_CUSTOM_HID_OtherSpeedCfgDesc
 108              		.cfi_endproc
 109              	.LFE75:
 111              		.section	.text.USBD_CUSTOM_HID_DataIn,"ax",%progbits
 112              		.align	1
 113              		.syntax unified
 114              		.thumb
 115              		.thumb_func
 117              	USBD_CUSTOM_HID_DataIn:
ARM GAS  C:\Users\BaiJiang\AppData\Local\Temp\ccRXUetp.s 			page 19


 118              	.LVL6:
 119              	.LFB76:
 917:Middlewares/ST/STM32_USB_Device_Library/Class/CustomHID/Src/usbd_customhid.c **** 
 918:Middlewares/ST/STM32_USB_Device_Library/Class/CustomHID/Src/usbd_customhid.c **** /**
 919:Middlewares/ST/STM32_USB_Device_Library/Class/CustomHID/Src/usbd_customhid.c ****   * @brief  USBD_CUSTOM_HID_DataIn
 920:Middlewares/ST/STM32_USB_Device_Library/Class/CustomHID/Src/usbd_customhid.c ****   *         handle data IN Stage
 921:Middlewares/ST/STM32_USB_Device_Library/Class/CustomHID/Src/usbd_customhid.c ****   * @param  pdev: device instance
 922:Middlewares/ST/STM32_USB_Device_Library/Class/CustomHID/Src/usbd_customhid.c ****   * @param  epnum: endpoint index
 923:Middlewares/ST/STM32_USB_Device_Library/Class/CustomHID/Src/usbd_customhid.c ****   * @retval status
 924:Middlewares/ST/STM32_USB_Device_Library/Class/CustomHID/Src/usbd_customhid.c ****   */
 925:Middlewares/ST/STM32_USB_Device_Library/Class/CustomHID/Src/usbd_customhid.c **** static uint8_t  USBD_CUSTOM_HID_DataIn(USBD_HandleTypeDef *pdev,
 926:Middlewares/ST/STM32_USB_Device_Library/Class/CustomHID/Src/usbd_customhid.c ****                                        uint8_t epnum)
 927:Middlewares/ST/STM32_USB_Device_Library/Class/CustomHID/Src/usbd_customhid.c **** {
 120              		.loc 1 927 1 is_stmt 1 view -0
 121              		.cfi_startproc
 122              		@ args = 0, pretend = 0, frame = 0
 123              		@ frame_needed = 0, uses_anonymous_args = 0
 124              		@ link register save eliminated.
 928:Middlewares/ST/STM32_USB_Device_Library/Class/CustomHID/Src/usbd_customhid.c ****   /* Ensure that the FIFO is empty before a new transfer, this condition could
 929:Middlewares/ST/STM32_USB_Device_Library/Class/CustomHID/Src/usbd_customhid.c ****   be caused by  a new transfer before the end of the previous transfer */
 930:Middlewares/ST/STM32_USB_Device_Library/Class/CustomHID/Src/usbd_customhid.c ****   ((USBD_CUSTOM_HID_HandleTypeDef *)pdev->pClassData)->state = CUSTOM_HID_IDLE;
 125              		.loc 1 930 3 view .LVU19
 126              		.loc 1 930 41 is_stmt 0 view .LVU20
 127 0000 D0F8B832 		ldr	r3, [r0, #696]
 128              		.loc 1 930 62 view .LVU21
 129 0004 0020     		movs	r0, #0
 130              	.LVL7:
 131              		.loc 1 930 62 view .LVU22
 132 0006 1875     		strb	r0, [r3, #20]
 931:Middlewares/ST/STM32_USB_Device_Library/Class/CustomHID/Src/usbd_customhid.c **** 
 932:Middlewares/ST/STM32_USB_Device_Library/Class/CustomHID/Src/usbd_customhid.c ****   return USBD_OK;
 133              		.loc 1 932 3 is_stmt 1 view .LVU23
 933:Middlewares/ST/STM32_USB_Device_Library/Class/CustomHID/Src/usbd_customhid.c **** }
 134              		.loc 1 933 1 is_stmt 0 view .LVU24
 135 0008 7047     		bx	lr
 136              		.cfi_endproc
 137              	.LFE76:
 139              		.section	.text.USBD_CUSTOM_HID_EP0_RxReady,"ax",%progbits
 140              		.align	1
 141              		.syntax unified
 142              		.thumb
 143              		.thumb_func
 145              	USBD_CUSTOM_HID_EP0_RxReady:
 146              	.LVL8:
 147              	.LFB78:
 934:Middlewares/ST/STM32_USB_Device_Library/Class/CustomHID/Src/usbd_customhid.c **** 
 935:Middlewares/ST/STM32_USB_Device_Library/Class/CustomHID/Src/usbd_customhid.c **** /**
 936:Middlewares/ST/STM32_USB_Device_Library/Class/CustomHID/Src/usbd_customhid.c ****   * @brief  USBD_CUSTOM_HID_DataOut
 937:Middlewares/ST/STM32_USB_Device_Library/Class/CustomHID/Src/usbd_customhid.c ****   *         handle data OUT Stage
 938:Middlewares/ST/STM32_USB_Device_Library/Class/CustomHID/Src/usbd_customhid.c ****   * @param  pdev: device instance
 939:Middlewares/ST/STM32_USB_Device_Library/Class/CustomHID/Src/usbd_customhid.c ****   * @param  epnum: endpoint index
 940:Middlewares/ST/STM32_USB_Device_Library/Class/CustomHID/Src/usbd_customhid.c ****   * @retval status
 941:Middlewares/ST/STM32_USB_Device_Library/Class/CustomHID/Src/usbd_customhid.c ****   */
 942:Middlewares/ST/STM32_USB_Device_Library/Class/CustomHID/Src/usbd_customhid.c **** static uint8_t  USBD_CUSTOM_HID_DataOut(USBD_HandleTypeDef *pdev,
 943:Middlewares/ST/STM32_USB_Device_Library/Class/CustomHID/Src/usbd_customhid.c ****                                         uint8_t epnum)
 944:Middlewares/ST/STM32_USB_Device_Library/Class/CustomHID/Src/usbd_customhid.c **** {
 945:Middlewares/ST/STM32_USB_Device_Library/Class/CustomHID/Src/usbd_customhid.c **** 
ARM GAS  C:\Users\BaiJiang\AppData\Local\Temp\ccRXUetp.s 			page 20


 946:Middlewares/ST/STM32_USB_Device_Library/Class/CustomHID/Src/usbd_customhid.c ****   USBD_CUSTOM_HID_HandleTypeDef     *hhid = (USBD_CUSTOM_HID_HandleTypeDef *)pdev->pClassData;
 947:Middlewares/ST/STM32_USB_Device_Library/Class/CustomHID/Src/usbd_customhid.c **** 
 948:Middlewares/ST/STM32_USB_Device_Library/Class/CustomHID/Src/usbd_customhid.c ****   ((USBD_CUSTOM_HID_ItfTypeDef *)pdev->pUserData)->OutEvent(hhid->Report_buf[0],
 949:Middlewares/ST/STM32_USB_Device_Library/Class/CustomHID/Src/usbd_customhid.c ****                                                             hhid->Report_buf[1]);
 950:Middlewares/ST/STM32_USB_Device_Library/Class/CustomHID/Src/usbd_customhid.c **** 
 951:Middlewares/ST/STM32_USB_Device_Library/Class/CustomHID/Src/usbd_customhid.c ****   USBD_LL_PrepareReceive(pdev, CUSTOM_HID_EPOUT_ADDR, hhid->Report_buf,
 952:Middlewares/ST/STM32_USB_Device_Library/Class/CustomHID/Src/usbd_customhid.c ****                          USBD_CUSTOMHID_OUTREPORT_BUF_SIZE);
 953:Middlewares/ST/STM32_USB_Device_Library/Class/CustomHID/Src/usbd_customhid.c **** 
 954:Middlewares/ST/STM32_USB_Device_Library/Class/CustomHID/Src/usbd_customhid.c ****   return USBD_OK;
 955:Middlewares/ST/STM32_USB_Device_Library/Class/CustomHID/Src/usbd_customhid.c **** }
 956:Middlewares/ST/STM32_USB_Device_Library/Class/CustomHID/Src/usbd_customhid.c **** 
 957:Middlewares/ST/STM32_USB_Device_Library/Class/CustomHID/Src/usbd_customhid.c **** /**
 958:Middlewares/ST/STM32_USB_Device_Library/Class/CustomHID/Src/usbd_customhid.c ****   * @brief  USBD_CUSTOM_HID_EP0_RxReady
 959:Middlewares/ST/STM32_USB_Device_Library/Class/CustomHID/Src/usbd_customhid.c ****   *         Handles control request data.
 960:Middlewares/ST/STM32_USB_Device_Library/Class/CustomHID/Src/usbd_customhid.c ****   * @param  pdev: device instance
 961:Middlewares/ST/STM32_USB_Device_Library/Class/CustomHID/Src/usbd_customhid.c ****   * @retval status
 962:Middlewares/ST/STM32_USB_Device_Library/Class/CustomHID/Src/usbd_customhid.c ****   */
 963:Middlewares/ST/STM32_USB_Device_Library/Class/CustomHID/Src/usbd_customhid.c **** static uint8_t USBD_CUSTOM_HID_EP0_RxReady(USBD_HandleTypeDef *pdev)
 964:Middlewares/ST/STM32_USB_Device_Library/Class/CustomHID/Src/usbd_customhid.c **** {
 148              		.loc 1 964 1 is_stmt 1 view -0
 149              		.cfi_startproc
 150              		@ args = 0, pretend = 0, frame = 0
 151              		@ frame_needed = 0, uses_anonymous_args = 0
 152              		.loc 1 964 1 is_stmt 0 view .LVU26
 153 0000 10B5     		push	{r4, lr}
 154              	.LCFI0:
 155              		.cfi_def_cfa_offset 8
 156              		.cfi_offset 4, -8
 157              		.cfi_offset 14, -4
 965:Middlewares/ST/STM32_USB_Device_Library/Class/CustomHID/Src/usbd_customhid.c ****   USBD_CUSTOM_HID_HandleTypeDef     *hhid = (USBD_CUSTOM_HID_HandleTypeDef *)pdev->pClassData;
 158              		.loc 1 965 3 is_stmt 1 view .LVU27
 159              		.loc 1 965 38 is_stmt 0 view .LVU28
 160 0002 D0F8B842 		ldr	r4, [r0, #696]
 161              	.LVL9:
 966:Middlewares/ST/STM32_USB_Device_Library/Class/CustomHID/Src/usbd_customhid.c **** 
 967:Middlewares/ST/STM32_USB_Device_Library/Class/CustomHID/Src/usbd_customhid.c ****   if (hhid->IsReportAvailable == 1U)
 162              		.loc 1 967 3 is_stmt 1 view .LVU29
 163              		.loc 1 967 11 is_stmt 0 view .LVU30
 164 0006 2369     		ldr	r3, [r4, #16]
 165              		.loc 1 967 6 view .LVU31
 166 0008 012B     		cmp	r3, #1
 167 000a 01D0     		beq	.L14
 168              	.LVL10:
 169              	.L12:
 968:Middlewares/ST/STM32_USB_Device_Library/Class/CustomHID/Src/usbd_customhid.c ****   {
 969:Middlewares/ST/STM32_USB_Device_Library/Class/CustomHID/Src/usbd_customhid.c ****     ((USBD_CUSTOM_HID_ItfTypeDef *)pdev->pUserData)->OutEvent(hhid->Report_buf[0],
 970:Middlewares/ST/STM32_USB_Device_Library/Class/CustomHID/Src/usbd_customhid.c ****                                                               hhid->Report_buf[1]);
 971:Middlewares/ST/STM32_USB_Device_Library/Class/CustomHID/Src/usbd_customhid.c ****     hhid->IsReportAvailable = 0U;
 972:Middlewares/ST/STM32_USB_Device_Library/Class/CustomHID/Src/usbd_customhid.c ****   }
 973:Middlewares/ST/STM32_USB_Device_Library/Class/CustomHID/Src/usbd_customhid.c **** 
 974:Middlewares/ST/STM32_USB_Device_Library/Class/CustomHID/Src/usbd_customhid.c ****   return USBD_OK;
 170              		.loc 1 974 3 is_stmt 1 view .LVU32
 975:Middlewares/ST/STM32_USB_Device_Library/Class/CustomHID/Src/usbd_customhid.c **** }
 171              		.loc 1 975 1 is_stmt 0 view .LVU33
 172 000c 0020     		movs	r0, #0
 173 000e 10BD     		pop	{r4, pc}
 174              	.LVL11:
ARM GAS  C:\Users\BaiJiang\AppData\Local\Temp\ccRXUetp.s 			page 21


 175              	.L14:
 969:Middlewares/ST/STM32_USB_Device_Library/Class/CustomHID/Src/usbd_customhid.c ****                                                               hhid->Report_buf[1]);
 176              		.loc 1 969 5 is_stmt 1 view .LVU34
 969:Middlewares/ST/STM32_USB_Device_Library/Class/CustomHID/Src/usbd_customhid.c ****                                                               hhid->Report_buf[1]);
 177              		.loc 1 969 40 is_stmt 0 view .LVU35
 178 0010 D0F8BC32 		ldr	r3, [r0, #700]
 969:Middlewares/ST/STM32_USB_Device_Library/Class/CustomHID/Src/usbd_customhid.c ****                                                               hhid->Report_buf[1]);
 179              		.loc 1 969 52 view .LVU36
 180 0014 DB68     		ldr	r3, [r3, #12]
 969:Middlewares/ST/STM32_USB_Device_Library/Class/CustomHID/Src/usbd_customhid.c ****                                                               hhid->Report_buf[1]);
 181              		.loc 1 969 6 view .LVU37
 182 0016 6178     		ldrb	r1, [r4, #1]	@ zero_extendqisi2
 183 0018 2078     		ldrb	r0, [r4]	@ zero_extendqisi2
 184              	.LVL12:
 969:Middlewares/ST/STM32_USB_Device_Library/Class/CustomHID/Src/usbd_customhid.c ****                                                               hhid->Report_buf[1]);
 185              		.loc 1 969 6 view .LVU38
 186 001a 9847     		blx	r3
 187              	.LVL13:
 971:Middlewares/ST/STM32_USB_Device_Library/Class/CustomHID/Src/usbd_customhid.c ****   }
 188              		.loc 1 971 5 is_stmt 1 view .LVU39
 971:Middlewares/ST/STM32_USB_Device_Library/Class/CustomHID/Src/usbd_customhid.c ****   }
 189              		.loc 1 971 29 is_stmt 0 view .LVU40
 190 001c 0023     		movs	r3, #0
 191 001e 2361     		str	r3, [r4, #16]
 192 0020 F4E7     		b	.L12
 193              		.cfi_endproc
 194              	.LFE78:
 196              		.section	.text.USBD_CUSTOM_HID_GetDeviceQualifierDesc,"ax",%progbits
 197              		.align	1
 198              		.syntax unified
 199              		.thumb
 200              		.thumb_func
 202              	USBD_CUSTOM_HID_GetDeviceQualifierDesc:
 203              	.LVL14:
 204              	.LFB79:
 976:Middlewares/ST/STM32_USB_Device_Library/Class/CustomHID/Src/usbd_customhid.c **** 
 977:Middlewares/ST/STM32_USB_Device_Library/Class/CustomHID/Src/usbd_customhid.c **** /**
 978:Middlewares/ST/STM32_USB_Device_Library/Class/CustomHID/Src/usbd_customhid.c **** * @brief  DeviceQualifierDescriptor
 979:Middlewares/ST/STM32_USB_Device_Library/Class/CustomHID/Src/usbd_customhid.c **** *         return Device Qualifier descriptor
 980:Middlewares/ST/STM32_USB_Device_Library/Class/CustomHID/Src/usbd_customhid.c **** * @param  length : pointer data length
 981:Middlewares/ST/STM32_USB_Device_Library/Class/CustomHID/Src/usbd_customhid.c **** * @retval pointer to descriptor buffer
 982:Middlewares/ST/STM32_USB_Device_Library/Class/CustomHID/Src/usbd_customhid.c **** */
 983:Middlewares/ST/STM32_USB_Device_Library/Class/CustomHID/Src/usbd_customhid.c **** static uint8_t  *USBD_CUSTOM_HID_GetDeviceQualifierDesc(uint16_t *length)
 984:Middlewares/ST/STM32_USB_Device_Library/Class/CustomHID/Src/usbd_customhid.c **** {
 205              		.loc 1 984 1 is_stmt 1 view -0
 206              		.cfi_startproc
 207              		@ args = 0, pretend = 0, frame = 0
 208              		@ frame_needed = 0, uses_anonymous_args = 0
 209              		@ link register save eliminated.
 985:Middlewares/ST/STM32_USB_Device_Library/Class/CustomHID/Src/usbd_customhid.c ****   *length = sizeof(USBD_CUSTOM_HID_DeviceQualifierDesc);
 210              		.loc 1 985 3 view .LVU42
 211              		.loc 1 985 11 is_stmt 0 view .LVU43
 212 0000 0A23     		movs	r3, #10
 213 0002 0380     		strh	r3, [r0]	@ movhi
 986:Middlewares/ST/STM32_USB_Device_Library/Class/CustomHID/Src/usbd_customhid.c ****   return USBD_CUSTOM_HID_DeviceQualifierDesc;
 214              		.loc 1 986 3 is_stmt 1 view .LVU44
 987:Middlewares/ST/STM32_USB_Device_Library/Class/CustomHID/Src/usbd_customhid.c **** }
ARM GAS  C:\Users\BaiJiang\AppData\Local\Temp\ccRXUetp.s 			page 22


 215              		.loc 1 987 1 is_stmt 0 view .LVU45
 216 0004 0048     		ldr	r0, .L16
 217              	.LVL15:
 218              		.loc 1 987 1 view .LVU46
 219 0006 7047     		bx	lr
 220              	.L17:
 221              		.align	2
 222              	.L16:
 223 0008 00000000 		.word	USBD_CUSTOM_HID_DeviceQualifierDesc
 224              		.cfi_endproc
 225              	.LFE79:
 227              		.section	.text.USBD_CUSTOM_HID_DataOut,"ax",%progbits
 228              		.align	1
 229              		.syntax unified
 230              		.thumb
 231              		.thumb_func
 233              	USBD_CUSTOM_HID_DataOut:
 234              	.LVL16:
 235              	.LFB77:
 944:Middlewares/ST/STM32_USB_Device_Library/Class/CustomHID/Src/usbd_customhid.c **** 
 236              		.loc 1 944 1 is_stmt 1 view -0
 237              		.cfi_startproc
 238              		@ args = 0, pretend = 0, frame = 0
 239              		@ frame_needed = 0, uses_anonymous_args = 0
 944:Middlewares/ST/STM32_USB_Device_Library/Class/CustomHID/Src/usbd_customhid.c **** 
 240              		.loc 1 944 1 is_stmt 0 view .LVU48
 241 0000 38B5     		push	{r3, r4, r5, lr}
 242              	.LCFI1:
 243              		.cfi_def_cfa_offset 16
 244              		.cfi_offset 3, -16
 245              		.cfi_offset 4, -12
 246              		.cfi_offset 5, -8
 247              		.cfi_offset 14, -4
 248 0002 0446     		mov	r4, r0
 946:Middlewares/ST/STM32_USB_Device_Library/Class/CustomHID/Src/usbd_customhid.c **** 
 249              		.loc 1 946 3 is_stmt 1 view .LVU49
 946:Middlewares/ST/STM32_USB_Device_Library/Class/CustomHID/Src/usbd_customhid.c **** 
 250              		.loc 1 946 38 is_stmt 0 view .LVU50
 251 0004 D0F8B852 		ldr	r5, [r0, #696]
 252              	.LVL17:
 948:Middlewares/ST/STM32_USB_Device_Library/Class/CustomHID/Src/usbd_customhid.c ****                                                             hhid->Report_buf[1]);
 253              		.loc 1 948 3 is_stmt 1 view .LVU51
 948:Middlewares/ST/STM32_USB_Device_Library/Class/CustomHID/Src/usbd_customhid.c ****                                                             hhid->Report_buf[1]);
 254              		.loc 1 948 38 is_stmt 0 view .LVU52
 255 0008 D0F8BC32 		ldr	r3, [r0, #700]
 948:Middlewares/ST/STM32_USB_Device_Library/Class/CustomHID/Src/usbd_customhid.c ****                                                             hhid->Report_buf[1]);
 256              		.loc 1 948 50 view .LVU53
 257 000c DB68     		ldr	r3, [r3, #12]
 948:Middlewares/ST/STM32_USB_Device_Library/Class/CustomHID/Src/usbd_customhid.c ****                                                             hhid->Report_buf[1]);
 258              		.loc 1 948 4 view .LVU54
 259 000e 6978     		ldrb	r1, [r5, #1]	@ zero_extendqisi2
 260              	.LVL18:
 948:Middlewares/ST/STM32_USB_Device_Library/Class/CustomHID/Src/usbd_customhid.c ****                                                             hhid->Report_buf[1]);
 261              		.loc 1 948 4 view .LVU55
 262 0010 2878     		ldrb	r0, [r5]	@ zero_extendqisi2
 263              	.LVL19:
 948:Middlewares/ST/STM32_USB_Device_Library/Class/CustomHID/Src/usbd_customhid.c ****                                                             hhid->Report_buf[1]);
ARM GAS  C:\Users\BaiJiang\AppData\Local\Temp\ccRXUetp.s 			page 23


 264              		.loc 1 948 4 view .LVU56
 265 0012 9847     		blx	r3
 266              	.LVL20:
 951:Middlewares/ST/STM32_USB_Device_Library/Class/CustomHID/Src/usbd_customhid.c ****                          USBD_CUSTOMHID_OUTREPORT_BUF_SIZE);
 267              		.loc 1 951 3 is_stmt 1 view .LVU57
 268 0014 0223     		movs	r3, #2
 269 0016 2A46     		mov	r2, r5
 270 0018 0121     		movs	r1, #1
 271 001a 2046     		mov	r0, r4
 272 001c FFF7FEFF 		bl	USBD_LL_PrepareReceive
 273              	.LVL21:
 954:Middlewares/ST/STM32_USB_Device_Library/Class/CustomHID/Src/usbd_customhid.c **** }
 274              		.loc 1 954 3 view .LVU58
 955:Middlewares/ST/STM32_USB_Device_Library/Class/CustomHID/Src/usbd_customhid.c **** 
 275              		.loc 1 955 1 is_stmt 0 view .LVU59
 276 0020 0020     		movs	r0, #0
 277 0022 38BD     		pop	{r3, r4, r5, pc}
 955:Middlewares/ST/STM32_USB_Device_Library/Class/CustomHID/Src/usbd_customhid.c **** 
 278              		.loc 1 955 1 view .LVU60
 279              		.cfi_endproc
 280              	.LFE77:
 282              		.section	.text.USBD_CUSTOM_HID_Setup,"ax",%progbits
 283              		.align	1
 284              		.syntax unified
 285              		.thumb
 286              		.thumb_func
 288              	USBD_CUSTOM_HID_Setup:
 289              	.LVL22:
 290              	.LFB70:
 694:Middlewares/ST/STM32_USB_Device_Library/Class/CustomHID/Src/usbd_customhid.c ****   USBD_CUSTOM_HID_HandleTypeDef *hhid = (USBD_CUSTOM_HID_HandleTypeDef *)pdev->pClassData;
 291              		.loc 1 694 1 is_stmt 1 view -0
 292              		.cfi_startproc
 293              		@ args = 0, pretend = 0, frame = 8
 294              		@ frame_needed = 0, uses_anonymous_args = 0
 694:Middlewares/ST/STM32_USB_Device_Library/Class/CustomHID/Src/usbd_customhid.c ****   USBD_CUSTOM_HID_HandleTypeDef *hhid = (USBD_CUSTOM_HID_HandleTypeDef *)pdev->pClassData;
 295              		.loc 1 694 1 is_stmt 0 view .LVU62
 296 0000 70B5     		push	{r4, r5, r6, lr}
 297              	.LCFI2:
 298              		.cfi_def_cfa_offset 16
 299              		.cfi_offset 4, -16
 300              		.cfi_offset 5, -12
 301              		.cfi_offset 6, -8
 302              		.cfi_offset 14, -4
 303 0002 82B0     		sub	sp, sp, #8
 304              	.LCFI3:
 305              		.cfi_def_cfa_offset 24
 695:Middlewares/ST/STM32_USB_Device_Library/Class/CustomHID/Src/usbd_customhid.c ****   uint16_t len = 0U;
 306              		.loc 1 695 3 is_stmt 1 view .LVU63
 695:Middlewares/ST/STM32_USB_Device_Library/Class/CustomHID/Src/usbd_customhid.c ****   uint16_t len = 0U;
 307              		.loc 1 695 34 is_stmt 0 view .LVU64
 308 0004 D0F8B852 		ldr	r5, [r0, #696]
 309              	.LVL23:
 696:Middlewares/ST/STM32_USB_Device_Library/Class/CustomHID/Src/usbd_customhid.c ****   uint8_t  *pbuf = NULL;
 310              		.loc 1 696 3 is_stmt 1 view .LVU65
 697:Middlewares/ST/STM32_USB_Device_Library/Class/CustomHID/Src/usbd_customhid.c ****   uint16_t status_info = 0U;
 311              		.loc 1 697 3 view .LVU66
 698:Middlewares/ST/STM32_USB_Device_Library/Class/CustomHID/Src/usbd_customhid.c ****   uint8_t ret = USBD_OK;
ARM GAS  C:\Users\BaiJiang\AppData\Local\Temp\ccRXUetp.s 			page 24


 312              		.loc 1 698 3 view .LVU67
 698:Middlewares/ST/STM32_USB_Device_Library/Class/CustomHID/Src/usbd_customhid.c ****   uint8_t ret = USBD_OK;
 313              		.loc 1 698 12 is_stmt 0 view .LVU68
 314 0008 0023     		movs	r3, #0
 315 000a ADF80630 		strh	r3, [sp, #6]	@ movhi
 699:Middlewares/ST/STM32_USB_Device_Library/Class/CustomHID/Src/usbd_customhid.c **** 
 316              		.loc 1 699 3 is_stmt 1 view .LVU69
 317              	.LVL24:
 701:Middlewares/ST/STM32_USB_Device_Library/Class/CustomHID/Src/usbd_customhid.c ****   {
 318              		.loc 1 701 3 view .LVU70
 701:Middlewares/ST/STM32_USB_Device_Library/Class/CustomHID/Src/usbd_customhid.c ****   {
 319              		.loc 1 701 14 is_stmt 0 view .LVU71
 320 000e 0C78     		ldrb	r4, [r1]	@ zero_extendqisi2
 321 0010 04F06004 		and	r4, r4, #96
 701:Middlewares/ST/STM32_USB_Device_Library/Class/CustomHID/Src/usbd_customhid.c ****   {
 322              		.loc 1 701 3 view .LVU72
 323 0014 202C     		cmp	r4, #32
 324 0016 07D0     		beq	.L21
 325 0018 402C     		cmp	r4, #64
 326 001a 00F08680 		beq	.L22
 327 001e 84B3     		cbz	r4, .L23
 824:Middlewares/ST/STM32_USB_Device_Library/Class/CustomHID/Src/usbd_customhid.c ****       ret = USBD_FAIL;
 328              		.loc 1 824 7 is_stmt 1 view .LVU73
 329 0020 FFF7FEFF 		bl	USBD_CtlError
 330              	.LVL25:
 825:Middlewares/ST/STM32_USB_Device_Library/Class/CustomHID/Src/usbd_customhid.c ****       break;
 331              		.loc 1 825 7 view .LVU74
 826:Middlewares/ST/STM32_USB_Device_Library/Class/CustomHID/Src/usbd_customhid.c ****   }
 332              		.loc 1 826 7 view .LVU75
 825:Middlewares/ST/STM32_USB_Device_Library/Class/CustomHID/Src/usbd_customhid.c ****       break;
 333              		.loc 1 825 11 is_stmt 0 view .LVU76
 334 0024 0224     		movs	r4, #2
 826:Middlewares/ST/STM32_USB_Device_Library/Class/CustomHID/Src/usbd_customhid.c ****   }
 335              		.loc 1 826 7 view .LVU77
 336 0026 88E0     		b	.L32
 337              	.LVL26:
 338              	.L21:
 704:Middlewares/ST/STM32_USB_Device_Library/Class/CustomHID/Src/usbd_customhid.c ****       {
 339              		.loc 1 704 7 is_stmt 1 view .LVU78
 704:Middlewares/ST/STM32_USB_Device_Library/Class/CustomHID/Src/usbd_customhid.c ****       {
 340              		.loc 1 704 18 is_stmt 0 view .LVU79
 341 0028 4B78     		ldrb	r3, [r1, #1]	@ zero_extendqisi2
 342 002a 023B     		subs	r3, r3, #2
 343 002c 092B     		cmp	r3, #9
 344 002e 24D8     		bhi	.L25
 345 0030 DFE803F0 		tbb	[pc, r3]
 346              	.L27:
 347 0034 14       		.byte	(.L31-.L27)/2
 348 0035 09       		.byte	(.L30-.L27)/2
 349 0036 23       		.byte	(.L25-.L27)/2
 350 0037 23       		.byte	(.L25-.L27)/2
 351 0038 23       		.byte	(.L25-.L27)/2
 352 0039 23       		.byte	(.L25-.L27)/2
 353 003a 23       		.byte	(.L25-.L27)/2
 354 003b 1B       		.byte	(.L29-.L27)/2
 355 003c 0F       		.byte	(.L28-.L27)/2
 356 003d 05       		.byte	(.L26-.L27)/2
ARM GAS  C:\Users\BaiJiang\AppData\Local\Temp\ccRXUetp.s 			page 25


 357              		.p2align 1
 358              	.L26:
 707:Middlewares/ST/STM32_USB_Device_Library/Class/CustomHID/Src/usbd_customhid.c ****           break;
 359              		.loc 1 707 11 is_stmt 1 view .LVU80
 707:Middlewares/ST/STM32_USB_Device_Library/Class/CustomHID/Src/usbd_customhid.c ****           break;
 360              		.loc 1 707 28 is_stmt 0 view .LVU81
 361 003e 8B78     		ldrb	r3, [r1, #2]	@ zero_extendqisi2
 707:Middlewares/ST/STM32_USB_Device_Library/Class/CustomHID/Src/usbd_customhid.c ****           break;
 362              		.loc 1 707 26 view .LVU82
 363 0040 6B60     		str	r3, [r5, #4]
 708:Middlewares/ST/STM32_USB_Device_Library/Class/CustomHID/Src/usbd_customhid.c **** 
 364              		.loc 1 708 11 is_stmt 1 view .LVU83
 699:Middlewares/ST/STM32_USB_Device_Library/Class/CustomHID/Src/usbd_customhid.c **** 
 365              		.loc 1 699 11 is_stmt 0 view .LVU84
 366 0042 0024     		movs	r4, #0
 708:Middlewares/ST/STM32_USB_Device_Library/Class/CustomHID/Src/usbd_customhid.c **** 
 367              		.loc 1 708 11 view .LVU85
 368 0044 79E0     		b	.L32
 369              	.L30:
 711:Middlewares/ST/STM32_USB_Device_Library/Class/CustomHID/Src/usbd_customhid.c ****           break;
 370              		.loc 1 711 11 is_stmt 1 view .LVU86
 371 0046 0122     		movs	r2, #1
 372 0048 291D     		adds	r1, r5, #4
 373              	.LVL27:
 711:Middlewares/ST/STM32_USB_Device_Library/Class/CustomHID/Src/usbd_customhid.c ****           break;
 374              		.loc 1 711 11 is_stmt 0 view .LVU87
 375 004a FFF7FEFF 		bl	USBD_CtlSendData
 376              	.LVL28:
 712:Middlewares/ST/STM32_USB_Device_Library/Class/CustomHID/Src/usbd_customhid.c **** 
 377              		.loc 1 712 11 is_stmt 1 view .LVU88
 699:Middlewares/ST/STM32_USB_Device_Library/Class/CustomHID/Src/usbd_customhid.c **** 
 378              		.loc 1 699 11 is_stmt 0 view .LVU89
 379 004e 0024     		movs	r4, #0
 712:Middlewares/ST/STM32_USB_Device_Library/Class/CustomHID/Src/usbd_customhid.c **** 
 380              		.loc 1 712 11 view .LVU90
 381 0050 73E0     		b	.L32
 382              	.LVL29:
 383              	.L28:
 715:Middlewares/ST/STM32_USB_Device_Library/Class/CustomHID/Src/usbd_customhid.c ****           break;
 384              		.loc 1 715 11 is_stmt 1 view .LVU91
 715:Middlewares/ST/STM32_USB_Device_Library/Class/CustomHID/Src/usbd_customhid.c ****           break;
 385              		.loc 1 715 42 is_stmt 0 view .LVU92
 386 0052 4B88     		ldrh	r3, [r1, #2]
 715:Middlewares/ST/STM32_USB_Device_Library/Class/CustomHID/Src/usbd_customhid.c ****           break;
 387              		.loc 1 715 29 view .LVU93
 388 0054 1B0A     		lsrs	r3, r3, #8
 715:Middlewares/ST/STM32_USB_Device_Library/Class/CustomHID/Src/usbd_customhid.c ****           break;
 389              		.loc 1 715 27 view .LVU94
 390 0056 AB60     		str	r3, [r5, #8]
 716:Middlewares/ST/STM32_USB_Device_Library/Class/CustomHID/Src/usbd_customhid.c **** 
 391              		.loc 1 716 11 is_stmt 1 view .LVU95
 699:Middlewares/ST/STM32_USB_Device_Library/Class/CustomHID/Src/usbd_customhid.c **** 
 392              		.loc 1 699 11 is_stmt 0 view .LVU96
 393 0058 0024     		movs	r4, #0
 716:Middlewares/ST/STM32_USB_Device_Library/Class/CustomHID/Src/usbd_customhid.c **** 
 394              		.loc 1 716 11 view .LVU97
 395 005a 6EE0     		b	.L32
ARM GAS  C:\Users\BaiJiang\AppData\Local\Temp\ccRXUetp.s 			page 26


 396              	.L31:
 719:Middlewares/ST/STM32_USB_Device_Library/Class/CustomHID/Src/usbd_customhid.c ****           break;
 397              		.loc 1 719 11 is_stmt 1 view .LVU98
 398 005c 0122     		movs	r2, #1
 399 005e 05F10801 		add	r1, r5, #8
 400              	.LVL30:
 719:Middlewares/ST/STM32_USB_Device_Library/Class/CustomHID/Src/usbd_customhid.c ****           break;
 401              		.loc 1 719 11 is_stmt 0 view .LVU99
 402 0062 FFF7FEFF 		bl	USBD_CtlSendData
 403              	.LVL31:
 720:Middlewares/ST/STM32_USB_Device_Library/Class/CustomHID/Src/usbd_customhid.c **** 
 404              		.loc 1 720 11 is_stmt 1 view .LVU100
 699:Middlewares/ST/STM32_USB_Device_Library/Class/CustomHID/Src/usbd_customhid.c **** 
 405              		.loc 1 699 11 is_stmt 0 view .LVU101
 406 0066 0024     		movs	r4, #0
 720:Middlewares/ST/STM32_USB_Device_Library/Class/CustomHID/Src/usbd_customhid.c **** 
 407              		.loc 1 720 11 view .LVU102
 408 0068 67E0     		b	.L32
 409              	.LVL32:
 410              	.L29:
 723:Middlewares/ST/STM32_USB_Device_Library/Class/CustomHID/Src/usbd_customhid.c ****           USBD_CtlPrepareRx(pdev, hhid->Report_buf, req->wLength);
 411              		.loc 1 723 11 is_stmt 1 view .LVU103
 723:Middlewares/ST/STM32_USB_Device_Library/Class/CustomHID/Src/usbd_customhid.c ****           USBD_CtlPrepareRx(pdev, hhid->Report_buf, req->wLength);
 412              		.loc 1 723 35 is_stmt 0 view .LVU104
 413 006a 0123     		movs	r3, #1
 414 006c 2B61     		str	r3, [r5, #16]
 724:Middlewares/ST/STM32_USB_Device_Library/Class/CustomHID/Src/usbd_customhid.c ****           break;
 415              		.loc 1 724 11 is_stmt 1 view .LVU105
 416 006e CA88     		ldrh	r2, [r1, #6]
 417 0070 2946     		mov	r1, r5
 418              	.LVL33:
 724:Middlewares/ST/STM32_USB_Device_Library/Class/CustomHID/Src/usbd_customhid.c ****           break;
 419              		.loc 1 724 11 is_stmt 0 view .LVU106
 420 0072 FFF7FEFF 		bl	USBD_CtlPrepareRx
 421              	.LVL34:
 725:Middlewares/ST/STM32_USB_Device_Library/Class/CustomHID/Src/usbd_customhid.c **** 
 422              		.loc 1 725 11 is_stmt 1 view .LVU107
 699:Middlewares/ST/STM32_USB_Device_Library/Class/CustomHID/Src/usbd_customhid.c **** 
 423              		.loc 1 699 11 is_stmt 0 view .LVU108
 424 0076 0024     		movs	r4, #0
 725:Middlewares/ST/STM32_USB_Device_Library/Class/CustomHID/Src/usbd_customhid.c **** 
 425              		.loc 1 725 11 view .LVU109
 426 0078 5FE0     		b	.L32
 427              	.LVL35:
 428              	.L25:
 728:Middlewares/ST/STM32_USB_Device_Library/Class/CustomHID/Src/usbd_customhid.c ****           ret = USBD_FAIL;
 429              		.loc 1 728 11 is_stmt 1 view .LVU110
 430 007a FFF7FEFF 		bl	USBD_CtlError
 431              	.LVL36:
 729:Middlewares/ST/STM32_USB_Device_Library/Class/CustomHID/Src/usbd_customhid.c ****           break;
 432              		.loc 1 729 11 view .LVU111
 730:Middlewares/ST/STM32_USB_Device_Library/Class/CustomHID/Src/usbd_customhid.c ****       }
 433              		.loc 1 730 11 view .LVU112
 729:Middlewares/ST/STM32_USB_Device_Library/Class/CustomHID/Src/usbd_customhid.c ****           break;
 434              		.loc 1 729 15 is_stmt 0 view .LVU113
 435 007e 0224     		movs	r4, #2
 730:Middlewares/ST/STM32_USB_Device_Library/Class/CustomHID/Src/usbd_customhid.c ****       }
ARM GAS  C:\Users\BaiJiang\AppData\Local\Temp\ccRXUetp.s 			page 27


 436              		.loc 1 730 11 view .LVU114
 437 0080 5BE0     		b	.L32
 438              	.LVL37:
 439              	.L23:
 735:Middlewares/ST/STM32_USB_Device_Library/Class/CustomHID/Src/usbd_customhid.c ****       {
 440              		.loc 1 735 7 is_stmt 1 view .LVU115
 735:Middlewares/ST/STM32_USB_Device_Library/Class/CustomHID/Src/usbd_customhid.c ****       {
 441              		.loc 1 735 18 is_stmt 0 view .LVU116
 442 0082 4E78     		ldrb	r6, [r1, #1]	@ zero_extendqisi2
 443 0084 0B2E     		cmp	r6, #11
 444 0086 4CD8     		bhi	.L33
 445 0088 DFE806F0 		tbb	[pc, r6]
 446              	.L35:
 447 008c 06       		.byte	(.L38-.L35)/2
 448 008d 4B       		.byte	(.L33-.L35)/2
 449 008e 4B       		.byte	(.L33-.L35)/2
 450 008f 4B       		.byte	(.L33-.L35)/2
 451 0090 4B       		.byte	(.L33-.L35)/2
 452 0091 4B       		.byte	(.L33-.L35)/2
 453 0092 15       		.byte	(.L37-.L35)/2
 454 0093 4B       		.byte	(.L33-.L35)/2
 455 0094 4B       		.byte	(.L33-.L35)/2
 456 0095 4B       		.byte	(.L33-.L35)/2
 457 0096 32       		.byte	(.L36-.L35)/2
 458 0097 40       		.byte	(.L34-.L35)/2
 459              		.p2align 1
 460              	.L38:
 738:Middlewares/ST/STM32_USB_Device_Library/Class/CustomHID/Src/usbd_customhid.c ****           {
 461              		.loc 1 738 11 is_stmt 1 view .LVU117
 738:Middlewares/ST/STM32_USB_Device_Library/Class/CustomHID/Src/usbd_customhid.c ****           {
 462              		.loc 1 738 19 is_stmt 0 view .LVU118
 463 0098 90F89C32 		ldrb	r3, [r0, #668]	@ zero_extendqisi2
 738:Middlewares/ST/STM32_USB_Device_Library/Class/CustomHID/Src/usbd_customhid.c ****           {
 464              		.loc 1 738 14 view .LVU119
 465 009c 032B     		cmp	r3, #3
 466 009e 03D0     		beq	.L50
 744:Middlewares/ST/STM32_USB_Device_Library/Class/CustomHID/Src/usbd_customhid.c ****             ret = USBD_FAIL;
 467              		.loc 1 744 13 is_stmt 1 view .LVU120
 468 00a0 FFF7FEFF 		bl	USBD_CtlError
 469              	.LVL38:
 745:Middlewares/ST/STM32_USB_Device_Library/Class/CustomHID/Src/usbd_customhid.c ****           }
 470              		.loc 1 745 13 view .LVU121
 745:Middlewares/ST/STM32_USB_Device_Library/Class/CustomHID/Src/usbd_customhid.c ****           }
 471              		.loc 1 745 17 is_stmt 0 view .LVU122
 472 00a4 0224     		movs	r4, #2
 473 00a6 48E0     		b	.L32
 474              	.LVL39:
 475              	.L50:
 740:Middlewares/ST/STM32_USB_Device_Library/Class/CustomHID/Src/usbd_customhid.c ****           }
 476              		.loc 1 740 13 is_stmt 1 view .LVU123
 477 00a8 0222     		movs	r2, #2
 478 00aa 0DF10601 		add	r1, sp, #6
 479              	.LVL40:
 740:Middlewares/ST/STM32_USB_Device_Library/Class/CustomHID/Src/usbd_customhid.c ****           }
 480              		.loc 1 740 13 is_stmt 0 view .LVU124
 481 00ae FFF7FEFF 		bl	USBD_CtlSendData
 482              	.LVL41:
ARM GAS  C:\Users\BaiJiang\AppData\Local\Temp\ccRXUetp.s 			page 28


 699:Middlewares/ST/STM32_USB_Device_Library/Class/CustomHID/Src/usbd_customhid.c **** 
 483              		.loc 1 699 11 view .LVU125
 484 00b2 3446     		mov	r4, r6
 485 00b4 41E0     		b	.L32
 486              	.LVL42:
 487              	.L37:
 750:Middlewares/ST/STM32_USB_Device_Library/Class/CustomHID/Src/usbd_customhid.c ****           {
 488              		.loc 1 750 11 is_stmt 1 view .LVU126
 750:Middlewares/ST/STM32_USB_Device_Library/Class/CustomHID/Src/usbd_customhid.c ****           {
 489              		.loc 1 750 18 is_stmt 0 view .LVU127
 490 00b6 4B88     		ldrh	r3, [r1, #2]
 750:Middlewares/ST/STM32_USB_Device_Library/Class/CustomHID/Src/usbd_customhid.c ****           {
 491              		.loc 1 750 32 view .LVU128
 492 00b8 1B0A     		lsrs	r3, r3, #8
 750:Middlewares/ST/STM32_USB_Device_Library/Class/CustomHID/Src/usbd_customhid.c ****           {
 493              		.loc 1 750 14 view .LVU129
 494 00ba 222B     		cmp	r3, #34
 495 00bc 06D0     		beq	.L51
 760:Middlewares/ST/STM32_USB_Device_Library/Class/CustomHID/Src/usbd_customhid.c ****             {
 496              		.loc 1 760 13 is_stmt 1 view .LVU130
 760:Middlewares/ST/STM32_USB_Device_Library/Class/CustomHID/Src/usbd_customhid.c ****             {
 497              		.loc 1 760 16 is_stmt 0 view .LVU131
 498 00be 212B     		cmp	r3, #33
 499 00c0 10D0     		beq	.L52
 697:Middlewares/ST/STM32_USB_Device_Library/Class/CustomHID/Src/usbd_customhid.c ****   uint16_t status_info = 0U;
 500              		.loc 1 697 13 view .LVU132
 501 00c2 0021     		movs	r1, #0
 502              	.LVL43:
 696:Middlewares/ST/STM32_USB_Device_Library/Class/CustomHID/Src/usbd_customhid.c ****   uint8_t  *pbuf = NULL;
 503              		.loc 1 696 12 view .LVU133
 504 00c4 0A46     		mov	r2, r1
 505              	.LVL44:
 506              	.L41:
 767:Middlewares/ST/STM32_USB_Device_Library/Class/CustomHID/Src/usbd_customhid.c ****           break;
 507              		.loc 1 767 11 is_stmt 1 view .LVU134
 508 00c6 FFF7FEFF 		bl	USBD_CtlSendData
 509              	.LVL45:
 768:Middlewares/ST/STM32_USB_Device_Library/Class/CustomHID/Src/usbd_customhid.c **** 
 510              		.loc 1 768 11 view .LVU135
 511 00ca 36E0     		b	.L32
 512              	.LVL46:
 513              	.L51:
 752:Middlewares/ST/STM32_USB_Device_Library/Class/CustomHID/Src/usbd_customhid.c ****               {
 514              		.loc 1 752 16 view .LVU136
 752:Middlewares/ST/STM32_USB_Device_Library/Class/CustomHID/Src/usbd_customhid.c ****               {
 515              		.loc 1 752 22 is_stmt 0 view .LVU137
 516 00cc 8B88     		ldrh	r3, [r1, #4]
 752:Middlewares/ST/STM32_USB_Device_Library/Class/CustomHID/Src/usbd_customhid.c ****               {
 517              		.loc 1 752 18 view .LVU138
 518 00ce 012B     		cmp	r3, #1
 519 00d0 02D0     		beq	.L53
 697:Middlewares/ST/STM32_USB_Device_Library/Class/CustomHID/Src/usbd_customhid.c ****   uint16_t status_info = 0U;
 520              		.loc 1 697 13 view .LVU139
 521 00d2 0021     		movs	r1, #0
 522              	.LVL47:
 696:Middlewares/ST/STM32_USB_Device_Library/Class/CustomHID/Src/usbd_customhid.c ****   uint8_t  *pbuf = NULL;
 523              		.loc 1 696 12 view .LVU140
ARM GAS  C:\Users\BaiJiang\AppData\Local\Temp\ccRXUetp.s 			page 29


 524 00d4 0A46     		mov	r2, r1
 525 00d6 F6E7     		b	.L41
 526              	.LVL48:
 527              	.L53:
 754:Middlewares/ST/STM32_USB_Device_Library/Class/CustomHID/Src/usbd_customhid.c ****                     pbuf = CUSTOM_HID_ReportDesc_FS1;
 528              		.loc 1 754 21 is_stmt 1 view .LVU141
 754:Middlewares/ST/STM32_USB_Device_Library/Class/CustomHID/Src/usbd_customhid.c ****                     pbuf = CUSTOM_HID_ReportDesc_FS1;
 529              		.loc 1 754 27 is_stmt 0 view .LVU142
 530 00d8 CA88     		ldrh	r2, [r1, #6]
 754:Middlewares/ST/STM32_USB_Device_Library/Class/CustomHID/Src/usbd_customhid.c ****                     pbuf = CUSTOM_HID_ReportDesc_FS1;
 531              		.loc 1 754 25 view .LVU143
 532 00da 762A     		cmp	r2, #118
 533 00dc 28BF     		it	cs
 534 00de 7622     		movcs	r2, #118
 535              	.LVL49:
 755:Middlewares/ST/STM32_USB_Device_Library/Class/CustomHID/Src/usbd_customhid.c ****               }
 536              		.loc 1 755 21 is_stmt 1 view .LVU144
 755:Middlewares/ST/STM32_USB_Device_Library/Class/CustomHID/Src/usbd_customhid.c ****               }
 537              		.loc 1 755 26 is_stmt 0 view .LVU145
 538 00e0 1A49     		ldr	r1, .L56
 539              	.LVL50:
 755:Middlewares/ST/STM32_USB_Device_Library/Class/CustomHID/Src/usbd_customhid.c ****               }
 540              		.loc 1 755 26 view .LVU146
 541 00e2 F0E7     		b	.L41
 542              	.LVL51:
 543              	.L52:
 762:Middlewares/ST/STM32_USB_Device_Library/Class/CustomHID/Src/usbd_customhid.c ****               len = MIN(USB_CUSTOM_HID_DESC_SIZ, req->wLength);
 544              		.loc 1 762 15 is_stmt 1 view .LVU147
 763:Middlewares/ST/STM32_USB_Device_Library/Class/CustomHID/Src/usbd_customhid.c ****             }
 545              		.loc 1 763 15 view .LVU148
 763:Middlewares/ST/STM32_USB_Device_Library/Class/CustomHID/Src/usbd_customhid.c ****             }
 546              		.loc 1 763 21 is_stmt 0 view .LVU149
 547 00e4 CA88     		ldrh	r2, [r1, #6]
 763:Middlewares/ST/STM32_USB_Device_Library/Class/CustomHID/Src/usbd_customhid.c ****             }
 548              		.loc 1 763 19 view .LVU150
 549 00e6 092A     		cmp	r2, #9
 550 00e8 28BF     		it	cs
 551 00ea 0922     		movcs	r2, #9
 552              	.LVL52:
 762:Middlewares/ST/STM32_USB_Device_Library/Class/CustomHID/Src/usbd_customhid.c ****               len = MIN(USB_CUSTOM_HID_DESC_SIZ, req->wLength);
 553              		.loc 1 762 20 view .LVU151
 554 00ec 1849     		ldr	r1, .L56+4
 555              	.LVL53:
 762:Middlewares/ST/STM32_USB_Device_Library/Class/CustomHID/Src/usbd_customhid.c ****               len = MIN(USB_CUSTOM_HID_DESC_SIZ, req->wLength);
 556              		.loc 1 762 20 view .LVU152
 557 00ee EAE7     		b	.L41
 558              	.LVL54:
 559              	.L36:
 771:Middlewares/ST/STM32_USB_Device_Library/Class/CustomHID/Src/usbd_customhid.c ****           {
 560              		.loc 1 771 11 is_stmt 1 view .LVU153
 771:Middlewares/ST/STM32_USB_Device_Library/Class/CustomHID/Src/usbd_customhid.c ****           {
 561              		.loc 1 771 19 is_stmt 0 view .LVU154
 562 00f0 90F89C32 		ldrb	r3, [r0, #668]	@ zero_extendqisi2
 771:Middlewares/ST/STM32_USB_Device_Library/Class/CustomHID/Src/usbd_customhid.c ****           {
 563              		.loc 1 771 14 view .LVU155
 564 00f4 032B     		cmp	r3, #3
 565 00f6 03D0     		beq	.L54
ARM GAS  C:\Users\BaiJiang\AppData\Local\Temp\ccRXUetp.s 			page 30


 777:Middlewares/ST/STM32_USB_Device_Library/Class/CustomHID/Src/usbd_customhid.c ****             ret = USBD_FAIL;
 566              		.loc 1 777 13 is_stmt 1 view .LVU156
 567 00f8 FFF7FEFF 		bl	USBD_CtlError
 568              	.LVL55:
 778:Middlewares/ST/STM32_USB_Device_Library/Class/CustomHID/Src/usbd_customhid.c ****           }
 569              		.loc 1 778 13 view .LVU157
 778:Middlewares/ST/STM32_USB_Device_Library/Class/CustomHID/Src/usbd_customhid.c ****           }
 570              		.loc 1 778 17 is_stmt 0 view .LVU158
 571 00fc 0224     		movs	r4, #2
 572 00fe 1CE0     		b	.L32
 573              	.LVL56:
 574              	.L54:
 773:Middlewares/ST/STM32_USB_Device_Library/Class/CustomHID/Src/usbd_customhid.c ****           }
 575              		.loc 1 773 13 is_stmt 1 view .LVU159
 576 0100 0122     		movs	r2, #1
 577 0102 05F10C01 		add	r1, r5, #12
 578              	.LVL57:
 773:Middlewares/ST/STM32_USB_Device_Library/Class/CustomHID/Src/usbd_customhid.c ****           }
 579              		.loc 1 773 13 is_stmt 0 view .LVU160
 580 0106 FFF7FEFF 		bl	USBD_CtlSendData
 581              	.LVL58:
 773:Middlewares/ST/STM32_USB_Device_Library/Class/CustomHID/Src/usbd_customhid.c ****           }
 582              		.loc 1 773 13 view .LVU161
 583 010a 16E0     		b	.L32
 584              	.LVL59:
 585              	.L34:
 783:Middlewares/ST/STM32_USB_Device_Library/Class/CustomHID/Src/usbd_customhid.c ****           {
 586              		.loc 1 783 11 is_stmt 1 view .LVU162
 783:Middlewares/ST/STM32_USB_Device_Library/Class/CustomHID/Src/usbd_customhid.c ****           {
 587              		.loc 1 783 19 is_stmt 0 view .LVU163
 588 010c 90F89C32 		ldrb	r3, [r0, #668]	@ zero_extendqisi2
 783:Middlewares/ST/STM32_USB_Device_Library/Class/CustomHID/Src/usbd_customhid.c ****           {
 589              		.loc 1 783 14 view .LVU164
 590 0110 032B     		cmp	r3, #3
 591 0112 02D1     		bne	.L43
 785:Middlewares/ST/STM32_USB_Device_Library/Class/CustomHID/Src/usbd_customhid.c ****           }
 592              		.loc 1 785 13 is_stmt 1 view .LVU165
 785:Middlewares/ST/STM32_USB_Device_Library/Class/CustomHID/Src/usbd_customhid.c ****           }
 593              		.loc 1 785 32 is_stmt 0 view .LVU166
 594 0114 8B78     		ldrb	r3, [r1, #2]	@ zero_extendqisi2
 785:Middlewares/ST/STM32_USB_Device_Library/Class/CustomHID/Src/usbd_customhid.c ****           }
 595              		.loc 1 785 30 view .LVU167
 596 0116 EB60     		str	r3, [r5, #12]
 597 0118 0FE0     		b	.L32
 598              	.L43:
 789:Middlewares/ST/STM32_USB_Device_Library/Class/CustomHID/Src/usbd_customhid.c ****             ret = USBD_FAIL;
 599              		.loc 1 789 13 is_stmt 1 view .LVU168
 600 011a FFF7FEFF 		bl	USBD_CtlError
 601              	.LVL60:
 790:Middlewares/ST/STM32_USB_Device_Library/Class/CustomHID/Src/usbd_customhid.c ****           }
 602              		.loc 1 790 13 view .LVU169
 790:Middlewares/ST/STM32_USB_Device_Library/Class/CustomHID/Src/usbd_customhid.c ****           }
 603              		.loc 1 790 17 is_stmt 0 view .LVU170
 604 011e 0224     		movs	r4, #2
 605 0120 0BE0     		b	.L32
 606              	.LVL61:
 607              	.L33:
ARM GAS  C:\Users\BaiJiang\AppData\Local\Temp\ccRXUetp.s 			page 31


 795:Middlewares/ST/STM32_USB_Device_Library/Class/CustomHID/Src/usbd_customhid.c ****           ret = USBD_FAIL;
 608              		.loc 1 795 11 is_stmt 1 view .LVU171
 609 0122 FFF7FEFF 		bl	USBD_CtlError
 610              	.LVL62:
 796:Middlewares/ST/STM32_USB_Device_Library/Class/CustomHID/Src/usbd_customhid.c ****           break;
 611              		.loc 1 796 11 view .LVU172
 797:Middlewares/ST/STM32_USB_Device_Library/Class/CustomHID/Src/usbd_customhid.c ****       }
 612              		.loc 1 797 11 view .LVU173
 796:Middlewares/ST/STM32_USB_Device_Library/Class/CustomHID/Src/usbd_customhid.c ****           break;
 613              		.loc 1 796 15 is_stmt 0 view .LVU174
 614 0126 0224     		movs	r4, #2
 797:Middlewares/ST/STM32_USB_Device_Library/Class/CustomHID/Src/usbd_customhid.c ****       }
 615              		.loc 1 797 11 view .LVU175
 616 0128 07E0     		b	.L32
 617              	.LVL63:
 618              	.L22:
 803:Middlewares/ST/STM32_USB_Device_Library/Class/CustomHID/Src/usbd_customhid.c ****  
 619              		.loc 1 803 9 is_stmt 1 view .LVU176
 803:Middlewares/ST/STM32_USB_Device_Library/Class/CustomHID/Src/usbd_customhid.c ****  
 620              		.loc 1 803 20 is_stmt 0 view .LVU177
 621 012a 4B78     		ldrb	r3, [r1, #1]	@ zero_extendqisi2
 622 012c 902B     		cmp	r3, #144
 623 012e 07D0     		beq	.L55
 697:Middlewares/ST/STM32_USB_Device_Library/Class/CustomHID/Src/usbd_customhid.c ****   uint16_t status_info = 0U;
 624              		.loc 1 697 13 view .LVU178
 625 0130 0021     		movs	r1, #0
 626              	.LVL64:
 696:Middlewares/ST/STM32_USB_Device_Library/Class/CustomHID/Src/usbd_customhid.c ****   uint8_t  *pbuf = NULL;
 627              		.loc 1 696 12 view .LVU179
 628 0132 0A46     		mov	r2, r1
 629              	.LVL65:
 630              	.L44:
 819:Middlewares/ST/STM32_USB_Device_Library/Class/CustomHID/Src/usbd_customhid.c ****  
 631              		.loc 1 819 9 is_stmt 1 view .LVU180
 632 0134 FFF7FEFF 		bl	USBD_CtlSendData
 633              	.LVL66:
 821:Middlewares/ST/STM32_USB_Device_Library/Class/CustomHID/Src/usbd_customhid.c ****  
 634              		.loc 1 821 9 view .LVU181
 699:Middlewares/ST/STM32_USB_Device_Library/Class/CustomHID/Src/usbd_customhid.c **** 
 635              		.loc 1 699 11 is_stmt 0 view .LVU182
 636 0138 0024     		movs	r4, #0
 637              	.LVL67:
 638              	.L32:
 828:Middlewares/ST/STM32_USB_Device_Library/Class/CustomHID/Src/usbd_customhid.c **** }
 639              		.loc 1 828 3 is_stmt 1 view .LVU183
 829:Middlewares/ST/STM32_USB_Device_Library/Class/CustomHID/Src/usbd_customhid.c **** 
 640              		.loc 1 829 1 is_stmt 0 view .LVU184
 641 013a 2046     		mov	r0, r4
 642 013c 02B0     		add	sp, sp, #8
 643              	.LCFI4:
 644              		.cfi_remember_state
 645              		.cfi_def_cfa_offset 16
 646              		@ sp needed
 647 013e 70BD     		pop	{r4, r5, r6, pc}
 648              	.LVL68:
 649              	.L55:
 650              	.LCFI5:
ARM GAS  C:\Users\BaiJiang\AppData\Local\Temp\ccRXUetp.s 			page 32


 651              		.cfi_restore_state
 811:Middlewares/ST/STM32_USB_Device_Library/Class/CustomHID/Src/usbd_customhid.c **** 
 652              		.loc 1 811 18 is_stmt 1 view .LVU185
 811:Middlewares/ST/STM32_USB_Device_Library/Class/CustomHID/Src/usbd_customhid.c **** 
 653              		.loc 1 811 25 is_stmt 0 view .LVU186
 654 0140 CA88     		ldrh	r2, [r1, #6]
 811:Middlewares/ST/STM32_USB_Device_Library/Class/CustomHID/Src/usbd_customhid.c **** 
 655              		.loc 1 811 23 view .LVU187
 656 0142 282A     		cmp	r2, #40
 657 0144 28BF     		it	cs
 658 0146 2822     		movcs	r2, #40
 659              	.LVL69:
 813:Middlewares/ST/STM32_USB_Device_Library/Class/CustomHID/Src/usbd_customhid.c ****             break;
 660              		.loc 1 813 17 is_stmt 1 view .LVU188
 814:Middlewares/ST/STM32_USB_Device_Library/Class/CustomHID/Src/usbd_customhid.c ****  
 661              		.loc 1 814 13 view .LVU189
 813:Middlewares/ST/STM32_USB_Device_Library/Class/CustomHID/Src/usbd_customhid.c ****             break;
 662              		.loc 1 813 22 is_stmt 0 view .LVU190
 663 0148 0249     		ldr	r1, .L56+8
 664              	.LVL70:
 814:Middlewares/ST/STM32_USB_Device_Library/Class/CustomHID/Src/usbd_customhid.c ****  
 665              		.loc 1 814 13 view .LVU191
 666 014a F3E7     		b	.L44
 667              	.L57:
 668              		.align	2
 669              	.L56:
 670 014c 00000000 		.word	CUSTOM_HID_ReportDesc_FS1
 671 0150 00000000 		.word	USBD_CUSTOM_HID_Desc
 672 0154 00000000 		.word	vendor_request_content1
 673              		.cfi_endproc
 674              	.LFE70:
 676              		.section	.text.USBD_CUSTOM_HID_DeInit,"ax",%progbits
 677              		.align	1
 678              		.syntax unified
 679              		.thumb
 680              		.thumb_func
 682              	USBD_CUSTOM_HID_DeInit:
 683              	.LVL71:
 684              	.LFB69:
 665:Middlewares/ST/STM32_USB_Device_Library/Class/CustomHID/Src/usbd_customhid.c ****   /* Close CUSTOM_HID EP IN */
 685              		.loc 1 665 1 is_stmt 1 view -0
 686              		.cfi_startproc
 687              		@ args = 0, pretend = 0, frame = 0
 688              		@ frame_needed = 0, uses_anonymous_args = 0
 665:Middlewares/ST/STM32_USB_Device_Library/Class/CustomHID/Src/usbd_customhid.c ****   /* Close CUSTOM_HID EP IN */
 689              		.loc 1 665 1 is_stmt 0 view .LVU193
 690 0000 38B5     		push	{r3, r4, r5, lr}
 691              	.LCFI6:
 692              		.cfi_def_cfa_offset 16
 693              		.cfi_offset 3, -16
 694              		.cfi_offset 4, -12
 695              		.cfi_offset 5, -8
 696              		.cfi_offset 14, -4
 697 0002 0446     		mov	r4, r0
 667:Middlewares/ST/STM32_USB_Device_Library/Class/CustomHID/Src/usbd_customhid.c ****   pdev->ep_in[CUSTOM_HID_EPIN_ADDR & 0xFU].is_used = 0U;
 698              		.loc 1 667 3 is_stmt 1 view .LVU194
 699 0004 8121     		movs	r1, #129
ARM GAS  C:\Users\BaiJiang\AppData\Local\Temp\ccRXUetp.s 			page 33


 700              	.LVL72:
 667:Middlewares/ST/STM32_USB_Device_Library/Class/CustomHID/Src/usbd_customhid.c ****   pdev->ep_in[CUSTOM_HID_EPIN_ADDR & 0xFU].is_used = 0U;
 701              		.loc 1 667 3 is_stmt 0 view .LVU195
 702 0006 FFF7FEFF 		bl	USBD_LL_CloseEP
 703              	.LVL73:
 668:Middlewares/ST/STM32_USB_Device_Library/Class/CustomHID/Src/usbd_customhid.c **** 
 704              		.loc 1 668 3 is_stmt 1 view .LVU196
 668:Middlewares/ST/STM32_USB_Device_Library/Class/CustomHID/Src/usbd_customhid.c **** 
 705              		.loc 1 668 52 is_stmt 0 view .LVU197
 706 000a 0025     		movs	r5, #0
 707 000c E562     		str	r5, [r4, #44]
 671:Middlewares/ST/STM32_USB_Device_Library/Class/CustomHID/Src/usbd_customhid.c ****   pdev->ep_out[CUSTOM_HID_EPOUT_ADDR & 0xFU].is_used = 0U;
 708              		.loc 1 671 3 is_stmt 1 view .LVU198
 709 000e 0121     		movs	r1, #1
 710 0010 2046     		mov	r0, r4
 711 0012 FFF7FEFF 		bl	USBD_LL_CloseEP
 712              	.LVL74:
 672:Middlewares/ST/STM32_USB_Device_Library/Class/CustomHID/Src/usbd_customhid.c **** 
 713              		.loc 1 672 3 view .LVU199
 672:Middlewares/ST/STM32_USB_Device_Library/Class/CustomHID/Src/usbd_customhid.c **** 
 714              		.loc 1 672 54 is_stmt 0 view .LVU200
 715 0016 C4F86C51 		str	r5, [r4, #364]
 675:Middlewares/ST/STM32_USB_Device_Library/Class/CustomHID/Src/usbd_customhid.c ****   {
 716              		.loc 1 675 3 is_stmt 1 view .LVU201
 675:Middlewares/ST/STM32_USB_Device_Library/Class/CustomHID/Src/usbd_customhid.c ****   {
 717              		.loc 1 675 11 is_stmt 0 view .LVU202
 718 001a D4F8B832 		ldr	r3, [r4, #696]
 675:Middlewares/ST/STM32_USB_Device_Library/Class/CustomHID/Src/usbd_customhid.c ****   {
 719              		.loc 1 675 6 view .LVU203
 720 001e 4BB1     		cbz	r3, .L59
 677:Middlewares/ST/STM32_USB_Device_Library/Class/CustomHID/Src/usbd_customhid.c ****     USBD_free(pdev->pClassData);
 721              		.loc 1 677 5 is_stmt 1 view .LVU204
 677:Middlewares/ST/STM32_USB_Device_Library/Class/CustomHID/Src/usbd_customhid.c ****     USBD_free(pdev->pClassData);
 722              		.loc 1 677 40 is_stmt 0 view .LVU205
 723 0020 D4F8BC32 		ldr	r3, [r4, #700]
 677:Middlewares/ST/STM32_USB_Device_Library/Class/CustomHID/Src/usbd_customhid.c ****     USBD_free(pdev->pClassData);
 724              		.loc 1 677 52 view .LVU206
 725 0024 9B68     		ldr	r3, [r3, #8]
 677:Middlewares/ST/STM32_USB_Device_Library/Class/CustomHID/Src/usbd_customhid.c ****     USBD_free(pdev->pClassData);
 726              		.loc 1 677 6 view .LVU207
 727 0026 9847     		blx	r3
 728              	.LVL75:
 678:Middlewares/ST/STM32_USB_Device_Library/Class/CustomHID/Src/usbd_customhid.c ****     pdev->pClassData = NULL;
 729              		.loc 1 678 5 is_stmt 1 view .LVU208
 730 0028 D4F8B802 		ldr	r0, [r4, #696]
 731 002c FFF7FEFF 		bl	USBD_static_free
 732              	.LVL76:
 679:Middlewares/ST/STM32_USB_Device_Library/Class/CustomHID/Src/usbd_customhid.c ****   }
 733              		.loc 1 679 5 view .LVU209
 679:Middlewares/ST/STM32_USB_Device_Library/Class/CustomHID/Src/usbd_customhid.c ****   }
 734              		.loc 1 679 22 is_stmt 0 view .LVU210
 735 0030 C4F8B852 		str	r5, [r4, #696]
 736              	.L59:
 681:Middlewares/ST/STM32_USB_Device_Library/Class/CustomHID/Src/usbd_customhid.c **** }
 737              		.loc 1 681 3 is_stmt 1 view .LVU211
 682:Middlewares/ST/STM32_USB_Device_Library/Class/CustomHID/Src/usbd_customhid.c **** unsigned char vendor_request_content1[] = {0x28, 0x0, 0x0, 0x0, 0x0, 0x1, 0x4, 0x0, 0x1, 0x0, 0x0, 
 738              		.loc 1 682 1 is_stmt 0 view .LVU212
ARM GAS  C:\Users\BaiJiang\AppData\Local\Temp\ccRXUetp.s 			page 34


 739 0034 0020     		movs	r0, #0
 740 0036 38BD     		pop	{r3, r4, r5, pc}
 682:Middlewares/ST/STM32_USB_Device_Library/Class/CustomHID/Src/usbd_customhid.c **** unsigned char vendor_request_content1[] = {0x28, 0x0, 0x0, 0x0, 0x0, 0x1, 0x4, 0x0, 0x1, 0x0, 0x0, 
 741              		.loc 1 682 1 view .LVU213
 742              		.cfi_endproc
 743              	.LFE69:
 745              		.section	.text.USBD_CUSTOM_HID_Init,"ax",%progbits
 746              		.align	1
 747              		.syntax unified
 748              		.thumb
 749              		.thumb_func
 751              	USBD_CUSTOM_HID_Init:
 752              	.LVL77:
 753              	.LFB68:
 572:Middlewares/ST/STM32_USB_Device_Library/Class/CustomHID/Src/usbd_customhid.c ****   uint8_t ret = 0U;
 754              		.loc 1 572 1 is_stmt 1 view -0
 755              		.cfi_startproc
 756              		@ args = 0, pretend = 0, frame = 0
 757              		@ frame_needed = 0, uses_anonymous_args = 0
 572:Middlewares/ST/STM32_USB_Device_Library/Class/CustomHID/Src/usbd_customhid.c ****   uint8_t ret = 0U;
 758              		.loc 1 572 1 is_stmt 0 view .LVU215
 759 0000 70B5     		push	{r4, r5, r6, lr}
 760              	.LCFI7:
 761              		.cfi_def_cfa_offset 16
 762              		.cfi_offset 4, -16
 763              		.cfi_offset 5, -12
 764              		.cfi_offset 6, -8
 765              		.cfi_offset 14, -4
 766 0002 0446     		mov	r4, r0
 573:Middlewares/ST/STM32_USB_Device_Library/Class/CustomHID/Src/usbd_customhid.c ****   USBD_CUSTOM_HID_HandleTypeDef     *hhid;
 767              		.loc 1 573 3 is_stmt 1 view .LVU216
 768              	.LVL78:
 574:Middlewares/ST/STM32_USB_Device_Library/Class/CustomHID/Src/usbd_customhid.c **** 
 769              		.loc 1 574 3 view .LVU217
 577:Middlewares/ST/STM32_USB_Device_Library/Class/CustomHID/Src/usbd_customhid.c ****                  CUSTOM_HID_EPIN_SIZE);
 770              		.loc 1 577 3 view .LVU218
 771 0004 2023     		movs	r3, #32
 772 0006 0322     		movs	r2, #3
 773 0008 8121     		movs	r1, #129
 774              	.LVL79:
 577:Middlewares/ST/STM32_USB_Device_Library/Class/CustomHID/Src/usbd_customhid.c ****                  CUSTOM_HID_EPIN_SIZE);
 775              		.loc 1 577 3 is_stmt 0 view .LVU219
 776 000a FFF7FEFF 		bl	USBD_LL_OpenEP
 777              	.LVL80:
 580:Middlewares/ST/STM32_USB_Device_Library/Class/CustomHID/Src/usbd_customhid.c **** 
 778              		.loc 1 580 3 is_stmt 1 view .LVU220
 580:Middlewares/ST/STM32_USB_Device_Library/Class/CustomHID/Src/usbd_customhid.c **** 
 779              		.loc 1 580 52 is_stmt 0 view .LVU221
 780 000e 0125     		movs	r5, #1
 781 0010 E562     		str	r5, [r4, #44]
 583:Middlewares/ST/STM32_USB_Device_Library/Class/CustomHID/Src/usbd_customhid.c ****                  CUSTOM_HID_EPOUT_SIZE);
 782              		.loc 1 583 3 is_stmt 1 view .LVU222
 783 0012 2023     		movs	r3, #32
 784 0014 0322     		movs	r2, #3
 785 0016 2946     		mov	r1, r5
 786 0018 2046     		mov	r0, r4
 787 001a FFF7FEFF 		bl	USBD_LL_OpenEP
ARM GAS  C:\Users\BaiJiang\AppData\Local\Temp\ccRXUetp.s 			page 35


 788              	.LVL81:
 586:Middlewares/ST/STM32_USB_Device_Library/Class/CustomHID/Src/usbd_customhid.c ****   USBD_LL_OpenEP(pdev, 0x01, USBD_EP_TYPE_INTR,
 789              		.loc 1 586 3 view .LVU223
 586:Middlewares/ST/STM32_USB_Device_Library/Class/CustomHID/Src/usbd_customhid.c ****   USBD_LL_OpenEP(pdev, 0x01, USBD_EP_TYPE_INTR,
 790              		.loc 1 586 54 is_stmt 0 view .LVU224
 791 001e C4F86C51 		str	r5, [r4, #364]
 587:Middlewares/ST/STM32_USB_Device_Library/Class/CustomHID/Src/usbd_customhid.c ****                  CUSTOM_HID_EPOUT_SIZE);
 792              		.loc 1 587 3 is_stmt 1 view .LVU225
 793 0022 2023     		movs	r3, #32
 794 0024 0322     		movs	r2, #3
 795 0026 2946     		mov	r1, r5
 796 0028 2046     		mov	r0, r4
 797 002a FFF7FEFF 		bl	USBD_LL_OpenEP
 798              	.LVL82:
 589:Middlewares/ST/STM32_USB_Device_Library/Class/CustomHID/Src/usbd_customhid.c ****                  CUSTOM_HID_EPOUT_SIZE);
 799              		.loc 1 589 3 view .LVU226
 800 002e 2023     		movs	r3, #32
 801 0030 0322     		movs	r2, #3
 802 0032 8121     		movs	r1, #129
 803 0034 2046     		mov	r0, r4
 804 0036 FFF7FEFF 		bl	USBD_LL_OpenEP
 805              	.LVL83:
 591:Middlewares/ST/STM32_USB_Device_Library/Class/CustomHID/Src/usbd_customhid.c ****    pdev->ep_out[0x01 & 0xFU].is_used = 1U;
 806              		.loc 1 591 4 view .LVU227
 591:Middlewares/ST/STM32_USB_Device_Library/Class/CustomHID/Src/usbd_customhid.c ****    pdev->ep_out[0x01 & 0xFU].is_used = 1U;
 807              		.loc 1 591 37 is_stmt 0 view .LVU228
 808 003a E562     		str	r5, [r4, #44]
 592:Middlewares/ST/STM32_USB_Device_Library/Class/CustomHID/Src/usbd_customhid.c ****     
 809              		.loc 1 592 4 is_stmt 1 view .LVU229
 592:Middlewares/ST/STM32_USB_Device_Library/Class/CustomHID/Src/usbd_customhid.c ****     
 810              		.loc 1 592 38 is_stmt 0 view .LVU230
 811 003c C4F86C51 		str	r5, [r4, #364]
 594:Middlewares/ST/STM32_USB_Device_Library/Class/CustomHID/Src/usbd_customhid.c ****                  CUSTOM_HID_EPOUT_SIZE);
 812              		.loc 1 594 3 is_stmt 1 view .LVU231
 813 0040 2023     		movs	r3, #32
 814 0042 0322     		movs	r2, #3
 815 0044 0221     		movs	r1, #2
 816 0046 2046     		mov	r0, r4
 817 0048 FFF7FEFF 		bl	USBD_LL_OpenEP
 818              	.LVL84:
 596:Middlewares/ST/STM32_USB_Device_Library/Class/CustomHID/Src/usbd_customhid.c ****                  CUSTOM_HID_EPOUT_SIZE);
 819              		.loc 1 596 3 view .LVU232
 820 004c 2023     		movs	r3, #32
 821 004e 0322     		movs	r2, #3
 822 0050 8221     		movs	r1, #130
 823 0052 2046     		mov	r0, r4
 824 0054 FFF7FEFF 		bl	USBD_LL_OpenEP
 825              	.LVL85:
 598:Middlewares/ST/STM32_USB_Device_Library/Class/CustomHID/Src/usbd_customhid.c ****    pdev->ep_out[0x02 & 0xFU].is_used = 1U;
 826              		.loc 1 598 4 view .LVU233
 598:Middlewares/ST/STM32_USB_Device_Library/Class/CustomHID/Src/usbd_customhid.c ****    pdev->ep_out[0x02 & 0xFU].is_used = 1U;
 827              		.loc 1 598 37 is_stmt 0 view .LVU234
 828 0058 2564     		str	r5, [r4, #64]
 599:Middlewares/ST/STM32_USB_Device_Library/Class/CustomHID/Src/usbd_customhid.c **** 
 829              		.loc 1 599 4 is_stmt 1 view .LVU235
 599:Middlewares/ST/STM32_USB_Device_Library/Class/CustomHID/Src/usbd_customhid.c **** 
 830              		.loc 1 599 38 is_stmt 0 view .LVU236
ARM GAS  C:\Users\BaiJiang\AppData\Local\Temp\ccRXUetp.s 			page 36


 831 005a C4F88051 		str	r5, [r4, #384]
 601:Middlewares/ST/STM32_USB_Device_Library/Class/CustomHID/Src/usbd_customhid.c ****                  CUSTOM_HID_EPOUT_SIZE);
 832              		.loc 1 601 3 is_stmt 1 view .LVU237
 833 005e 2023     		movs	r3, #32
 834 0060 0322     		movs	r2, #3
 835 0062 1146     		mov	r1, r2
 836 0064 2046     		mov	r0, r4
 837 0066 FFF7FEFF 		bl	USBD_LL_OpenEP
 838              	.LVL86:
 603:Middlewares/ST/STM32_USB_Device_Library/Class/CustomHID/Src/usbd_customhid.c ****                  CUSTOM_HID_EPOUT_SIZE);
 839              		.loc 1 603 3 view .LVU238
 840 006a 2023     		movs	r3, #32
 841 006c 0322     		movs	r2, #3
 842 006e 8321     		movs	r1, #131
 843 0070 2046     		mov	r0, r4
 844 0072 FFF7FEFF 		bl	USBD_LL_OpenEP
 845              	.LVL87:
 605:Middlewares/ST/STM32_USB_Device_Library/Class/CustomHID/Src/usbd_customhid.c ****    pdev->ep_out[0x03 & 0xFU].is_used = 1U;
 846              		.loc 1 605 4 view .LVU239
 605:Middlewares/ST/STM32_USB_Device_Library/Class/CustomHID/Src/usbd_customhid.c ****    pdev->ep_out[0x03 & 0xFU].is_used = 1U;
 847              		.loc 1 605 37 is_stmt 0 view .LVU240
 848 0076 6565     		str	r5, [r4, #84]
 606:Middlewares/ST/STM32_USB_Device_Library/Class/CustomHID/Src/usbd_customhid.c ****    
 849              		.loc 1 606 4 is_stmt 1 view .LVU241
 606:Middlewares/ST/STM32_USB_Device_Library/Class/CustomHID/Src/usbd_customhid.c ****    
 850              		.loc 1 606 38 is_stmt 0 view .LVU242
 851 0078 C4F89451 		str	r5, [r4, #404]
 608:Middlewares/ST/STM32_USB_Device_Library/Class/CustomHID/Src/usbd_customhid.c ****                  CUSTOM_HID_EPOUT_SIZE);
 852              		.loc 1 608 3 is_stmt 1 view .LVU243
 853 007c 2023     		movs	r3, #32
 854 007e 0322     		movs	r2, #3
 855 0080 0421     		movs	r1, #4
 856 0082 2046     		mov	r0, r4
 857 0084 FFF7FEFF 		bl	USBD_LL_OpenEP
 858              	.LVL88:
 610:Middlewares/ST/STM32_USB_Device_Library/Class/CustomHID/Src/usbd_customhid.c ****                  CUSTOM_HID_EPOUT_SIZE);
 859              		.loc 1 610 3 view .LVU244
 860 0088 2023     		movs	r3, #32
 861 008a 0322     		movs	r2, #3
 862 008c 8421     		movs	r1, #132
 863 008e 2046     		mov	r0, r4
 864 0090 FFF7FEFF 		bl	USBD_LL_OpenEP
 865              	.LVL89:
 612:Middlewares/ST/STM32_USB_Device_Library/Class/CustomHID/Src/usbd_customhid.c ****    pdev->ep_out[0x04 & 0xFU].is_used = 1U;
 866              		.loc 1 612 4 view .LVU245
 612:Middlewares/ST/STM32_USB_Device_Library/Class/CustomHID/Src/usbd_customhid.c ****    pdev->ep_out[0x04 & 0xFU].is_used = 1U;
 867              		.loc 1 612 37 is_stmt 0 view .LVU246
 868 0094 A566     		str	r5, [r4, #104]
 613:Middlewares/ST/STM32_USB_Device_Library/Class/CustomHID/Src/usbd_customhid.c ****    
 869              		.loc 1 613 4 is_stmt 1 view .LVU247
 613:Middlewares/ST/STM32_USB_Device_Library/Class/CustomHID/Src/usbd_customhid.c ****    
 870              		.loc 1 613 38 is_stmt 0 view .LVU248
 871 0096 C4F8A851 		str	r5, [r4, #424]
 615:Middlewares/ST/STM32_USB_Device_Library/Class/CustomHID/Src/usbd_customhid.c ****                  CUSTOM_HID_EPOUT_SIZE);
 872              		.loc 1 615 3 is_stmt 1 view .LVU249
 873 009a 2023     		movs	r3, #32
 874 009c 0322     		movs	r2, #3
ARM GAS  C:\Users\BaiJiang\AppData\Local\Temp\ccRXUetp.s 			page 37


 875 009e 0521     		movs	r1, #5
 876 00a0 2046     		mov	r0, r4
 877 00a2 FFF7FEFF 		bl	USBD_LL_OpenEP
 878              	.LVL90:
 617:Middlewares/ST/STM32_USB_Device_Library/Class/CustomHID/Src/usbd_customhid.c ****                  CUSTOM_HID_EPOUT_SIZE);
 879              		.loc 1 617 3 view .LVU250
 880 00a6 2023     		movs	r3, #32
 881 00a8 0322     		movs	r2, #3
 882 00aa 8521     		movs	r1, #133
 883 00ac 2046     		mov	r0, r4
 884 00ae FFF7FEFF 		bl	USBD_LL_OpenEP
 885              	.LVL91:
 619:Middlewares/ST/STM32_USB_Device_Library/Class/CustomHID/Src/usbd_customhid.c ****    pdev->ep_out[0x05 & 0xFU].is_used = 1U;
 886              		.loc 1 619 4 view .LVU251
 619:Middlewares/ST/STM32_USB_Device_Library/Class/CustomHID/Src/usbd_customhid.c ****    pdev->ep_out[0x05 & 0xFU].is_used = 1U;
 887              		.loc 1 619 37 is_stmt 0 view .LVU252
 888 00b2 E567     		str	r5, [r4, #124]
 620:Middlewares/ST/STM32_USB_Device_Library/Class/CustomHID/Src/usbd_customhid.c ****    
 889              		.loc 1 620 4 is_stmt 1 view .LVU253
 620:Middlewares/ST/STM32_USB_Device_Library/Class/CustomHID/Src/usbd_customhid.c ****    
 890              		.loc 1 620 38 is_stmt 0 view .LVU254
 891 00b4 C4F8BC51 		str	r5, [r4, #444]
 622:Middlewares/ST/STM32_USB_Device_Library/Class/CustomHID/Src/usbd_customhid.c ****                  CUSTOM_HID_EPOUT_SIZE);
 892              		.loc 1 622 3 is_stmt 1 view .LVU255
 893 00b8 2023     		movs	r3, #32
 894 00ba 0322     		movs	r2, #3
 895 00bc 0621     		movs	r1, #6
 896 00be 2046     		mov	r0, r4
 897 00c0 FFF7FEFF 		bl	USBD_LL_OpenEP
 898              	.LVL92:
 624:Middlewares/ST/STM32_USB_Device_Library/Class/CustomHID/Src/usbd_customhid.c ****                  CUSTOM_HID_EPOUT_SIZE);
 899              		.loc 1 624 3 view .LVU256
 900 00c4 2023     		movs	r3, #32
 901 00c6 0322     		movs	r2, #3
 902 00c8 8621     		movs	r1, #134
 903 00ca 2046     		mov	r0, r4
 904 00cc FFF7FEFF 		bl	USBD_LL_OpenEP
 905              	.LVL93:
 626:Middlewares/ST/STM32_USB_Device_Library/Class/CustomHID/Src/usbd_customhid.c ****    pdev->ep_out[0x06 & 0xFU].is_used = 1U;
 906              		.loc 1 626 4 view .LVU257
 626:Middlewares/ST/STM32_USB_Device_Library/Class/CustomHID/Src/usbd_customhid.c ****    pdev->ep_out[0x06 & 0xFU].is_used = 1U;
 907              		.loc 1 626 37 is_stmt 0 view .LVU258
 908 00d0 C4F89050 		str	r5, [r4, #144]
 627:Middlewares/ST/STM32_USB_Device_Library/Class/CustomHID/Src/usbd_customhid.c ****    
 909              		.loc 1 627 4 is_stmt 1 view .LVU259
 627:Middlewares/ST/STM32_USB_Device_Library/Class/CustomHID/Src/usbd_customhid.c ****    
 910              		.loc 1 627 38 is_stmt 0 view .LVU260
 911 00d4 C4F8D051 		str	r5, [r4, #464]
 629:Middlewares/ST/STM32_USB_Device_Library/Class/CustomHID/Src/usbd_customhid.c ****                  CUSTOM_HID_EPOUT_SIZE);
 912              		.loc 1 629 3 is_stmt 1 view .LVU261
 913 00d8 2023     		movs	r3, #32
 914 00da 0322     		movs	r2, #3
 915 00dc 0721     		movs	r1, #7
 916 00de 2046     		mov	r0, r4
 917 00e0 FFF7FEFF 		bl	USBD_LL_OpenEP
 918              	.LVL94:
 631:Middlewares/ST/STM32_USB_Device_Library/Class/CustomHID/Src/usbd_customhid.c ****                  CUSTOM_HID_EPOUT_SIZE);
ARM GAS  C:\Users\BaiJiang\AppData\Local\Temp\ccRXUetp.s 			page 38


 919              		.loc 1 631 3 view .LVU262
 920 00e4 2023     		movs	r3, #32
 921 00e6 0322     		movs	r2, #3
 922 00e8 8721     		movs	r1, #135
 923 00ea 2046     		mov	r0, r4
 924 00ec FFF7FEFF 		bl	USBD_LL_OpenEP
 925              	.LVL95:
 633:Middlewares/ST/STM32_USB_Device_Library/Class/CustomHID/Src/usbd_customhid.c ****    pdev->ep_out[0x07 & 0xFU].is_used = 1U;
 926              		.loc 1 633 4 view .LVU263
 633:Middlewares/ST/STM32_USB_Device_Library/Class/CustomHID/Src/usbd_customhid.c ****    pdev->ep_out[0x07 & 0xFU].is_used = 1U;
 927              		.loc 1 633 37 is_stmt 0 view .LVU264
 928 00f0 C4F8A450 		str	r5, [r4, #164]
 634:Middlewares/ST/STM32_USB_Device_Library/Class/CustomHID/Src/usbd_customhid.c ****   pdev->pClassData = USBD_malloc(sizeof(USBD_CUSTOM_HID_HandleTypeDef));
 929              		.loc 1 634 4 is_stmt 1 view .LVU265
 634:Middlewares/ST/STM32_USB_Device_Library/Class/CustomHID/Src/usbd_customhid.c ****   pdev->pClassData = USBD_malloc(sizeof(USBD_CUSTOM_HID_HandleTypeDef));
 930              		.loc 1 634 38 is_stmt 0 view .LVU266
 931 00f4 C4F8E451 		str	r5, [r4, #484]
 635:Middlewares/ST/STM32_USB_Device_Library/Class/CustomHID/Src/usbd_customhid.c **** 
 932              		.loc 1 635 3 is_stmt 1 view .LVU267
 635:Middlewares/ST/STM32_USB_Device_Library/Class/CustomHID/Src/usbd_customhid.c **** 
 933              		.loc 1 635 22 is_stmt 0 view .LVU268
 934 00f8 1820     		movs	r0, #24
 935 00fa FFF7FEFF 		bl	USBD_static_malloc
 936              	.LVL96:
 635:Middlewares/ST/STM32_USB_Device_Library/Class/CustomHID/Src/usbd_customhid.c **** 
 937              		.loc 1 635 20 discriminator 1 view .LVU269
 938 00fe C4F8B802 		str	r0, [r4, #696]
 637:Middlewares/ST/STM32_USB_Device_Library/Class/CustomHID/Src/usbd_customhid.c ****   {
 939              		.loc 1 637 3 is_stmt 1 view .LVU270
 637:Middlewares/ST/STM32_USB_Device_Library/Class/CustomHID/Src/usbd_customhid.c ****   {
 940              		.loc 1 637 6 is_stmt 0 view .LVU271
 941 0102 70B1     		cbz	r0, .L63
 942 0104 0546     		mov	r5, r0
 643:Middlewares/ST/STM32_USB_Device_Library/Class/CustomHID/Src/usbd_customhid.c **** 
 943              		.loc 1 643 5 is_stmt 1 view .LVU272
 944              	.LVL97:
 645:Middlewares/ST/STM32_USB_Device_Library/Class/CustomHID/Src/usbd_customhid.c ****     ((USBD_CUSTOM_HID_ItfTypeDef *)pdev->pUserData)->Init();
 945              		.loc 1 645 5 view .LVU273
 645:Middlewares/ST/STM32_USB_Device_Library/Class/CustomHID/Src/usbd_customhid.c ****     ((USBD_CUSTOM_HID_ItfTypeDef *)pdev->pUserData)->Init();
 946              		.loc 1 645 17 is_stmt 0 view .LVU274
 947 0106 0026     		movs	r6, #0
 948 0108 0675     		strb	r6, [r0, #20]
 646:Middlewares/ST/STM32_USB_Device_Library/Class/CustomHID/Src/usbd_customhid.c **** 
 949              		.loc 1 646 5 is_stmt 1 view .LVU275
 646:Middlewares/ST/STM32_USB_Device_Library/Class/CustomHID/Src/usbd_customhid.c **** 
 950              		.loc 1 646 40 is_stmt 0 view .LVU276
 951 010a D4F8BC32 		ldr	r3, [r4, #700]
 646:Middlewares/ST/STM32_USB_Device_Library/Class/CustomHID/Src/usbd_customhid.c **** 
 952              		.loc 1 646 52 view .LVU277
 953 010e 5B68     		ldr	r3, [r3, #4]
 646:Middlewares/ST/STM32_USB_Device_Library/Class/CustomHID/Src/usbd_customhid.c **** 
 954              		.loc 1 646 6 view .LVU278
 955 0110 9847     		blx	r3
 956              	.LVL98:
 649:Middlewares/ST/STM32_USB_Device_Library/Class/CustomHID/Src/usbd_customhid.c ****                            USBD_CUSTOMHID_OUTREPORT_BUF_SIZE);
 957              		.loc 1 649 5 is_stmt 1 view .LVU279
 958 0112 0223     		movs	r3, #2
ARM GAS  C:\Users\BaiJiang\AppData\Local\Temp\ccRXUetp.s 			page 39


 959 0114 2A46     		mov	r2, r5
 960 0116 0121     		movs	r1, #1
 961 0118 2046     		mov	r0, r4
 962 011a FFF7FEFF 		bl	USBD_LL_PrepareReceive
 963              	.LVL99:
 573:Middlewares/ST/STM32_USB_Device_Library/Class/CustomHID/Src/usbd_customhid.c ****   USBD_CUSTOM_HID_HandleTypeDef     *hhid;
 964              		.loc 1 573 11 is_stmt 0 view .LVU280
 965 011e 3046     		mov	r0, r6
 966              	.LVL100:
 967              	.L62:
 653:Middlewares/ST/STM32_USB_Device_Library/Class/CustomHID/Src/usbd_customhid.c **** }
 968              		.loc 1 653 3 is_stmt 1 view .LVU281
 654:Middlewares/ST/STM32_USB_Device_Library/Class/CustomHID/Src/usbd_customhid.c **** 
 969              		.loc 1 654 1 is_stmt 0 view .LVU282
 970 0120 70BD     		pop	{r4, r5, r6, pc}
 971              	.LVL101:
 972              	.L63:
 639:Middlewares/ST/STM32_USB_Device_Library/Class/CustomHID/Src/usbd_customhid.c ****   }
 973              		.loc 1 639 9 view .LVU283
 974 0122 0120     		movs	r0, #1
 975 0124 FCE7     		b	.L62
 976              		.cfi_endproc
 977              	.LFE68:
 979              		.section	.text.USBD_CUSTOM_HID_SendReport_ep,"ax",%progbits
 980              		.align	1
 981              		.global	USBD_CUSTOM_HID_SendReport_ep
 982              		.syntax unified
 983              		.thumb
 984              		.thumb_func
 986              	USBD_CUSTOM_HID_SendReport_ep:
 987              	.LVL102:
 988              	.LFB71:
 834:Middlewares/ST/STM32_USB_Device_Library/Class/CustomHID/Src/usbd_customhid.c ****   USBD_CUSTOM_HID_HandleTypeDef     *hhid = (USBD_CUSTOM_HID_HandleTypeDef *)pdev->pClassData;
 989              		.loc 1 834 1 is_stmt 1 view -0
 990              		.cfi_startproc
 991              		@ args = 0, pretend = 0, frame = 0
 992              		@ frame_needed = 0, uses_anonymous_args = 0
 834:Middlewares/ST/STM32_USB_Device_Library/Class/CustomHID/Src/usbd_customhid.c ****   USBD_CUSTOM_HID_HandleTypeDef     *hhid = (USBD_CUSTOM_HID_HandleTypeDef *)pdev->pClassData;
 993              		.loc 1 834 1 is_stmt 0 view .LVU285
 994 0000 38B5     		push	{r3, r4, r5, lr}
 995              	.LCFI8:
 996              		.cfi_def_cfa_offset 16
 997              		.cfi_offset 3, -16
 998              		.cfi_offset 4, -12
 999              		.cfi_offset 5, -8
 1000              		.cfi_offset 14, -4
 1001 0002 8C46     		mov	ip, r1
 1002 0004 1946     		mov	r1, r3
 1003              	.LVL103:
 835:Middlewares/ST/STM32_USB_Device_Library/Class/CustomHID/Src/usbd_customhid.c **** 
 1004              		.loc 1 835 3 is_stmt 1 view .LVU286
 835:Middlewares/ST/STM32_USB_Device_Library/Class/CustomHID/Src/usbd_customhid.c **** 
 1005              		.loc 1 835 38 is_stmt 0 view .LVU287
 1006 0006 D0F8B852 		ldr	r5, [r0, #696]
 1007              	.LVL104:
 837:Middlewares/ST/STM32_USB_Device_Library/Class/CustomHID/Src/usbd_customhid.c ****   {
 1008              		.loc 1 837 3 is_stmt 1 view .LVU288
ARM GAS  C:\Users\BaiJiang\AppData\Local\Temp\ccRXUetp.s 			page 40


 837:Middlewares/ST/STM32_USB_Device_Library/Class/CustomHID/Src/usbd_customhid.c ****   {
 1009              		.loc 1 837 11 is_stmt 0 view .LVU289
 1010 000a 90F89C32 		ldrb	r3, [r0, #668]	@ zero_extendqisi2
 1011              	.LVL105:
 837:Middlewares/ST/STM32_USB_Device_Library/Class/CustomHID/Src/usbd_customhid.c ****   {
 1012              		.loc 1 837 6 view .LVU290
 1013 000e 032B     		cmp	r3, #3
 1014 0010 02D0     		beq	.L70
 849:Middlewares/ST/STM32_USB_Device_Library/Class/CustomHID/Src/usbd_customhid.c **** }
 1015              		.loc 1 849 10 view .LVU291
 1016 0012 0024     		movs	r4, #0
 1017              	.LVL106:
 1018              	.L66:
 850:Middlewares/ST/STM32_USB_Device_Library/Class/CustomHID/Src/usbd_customhid.c **** /**
 1019              		.loc 1 850 1 view .LVU292
 1020 0014 2046     		mov	r0, r4
 1021 0016 38BD     		pop	{r3, r4, r5, pc}
 1022              	.LVL107:
 1023              	.L70:
 839:Middlewares/ST/STM32_USB_Device_Library/Class/CustomHID/Src/usbd_customhid.c ****     {
 1024              		.loc 1 839 5 is_stmt 1 view .LVU293
 839:Middlewares/ST/STM32_USB_Device_Library/Class/CustomHID/Src/usbd_customhid.c ****     {
 1025              		.loc 1 839 13 is_stmt 0 view .LVU294
 1026 0018 2C7D     		ldrb	r4, [r5, #20]	@ zero_extendqisi2
 839:Middlewares/ST/STM32_USB_Device_Library/Class/CustomHID/Src/usbd_customhid.c ****     {
 1027              		.loc 1 839 8 view .LVU295
 1028 001a 0CB1     		cbz	r4, .L71
 846:Middlewares/ST/STM32_USB_Device_Library/Class/CustomHID/Src/usbd_customhid.c ****     }
 1029              		.loc 1 846 14 view .LVU296
 1030 001c 0124     		movs	r4, #1
 1031 001e F9E7     		b	.L66
 1032              	.L71:
 841:Middlewares/ST/STM32_USB_Device_Library/Class/CustomHID/Src/usbd_customhid.c ****       USBD_LL_Transmit(pdev, ep, report, len);
 1033              		.loc 1 841 7 is_stmt 1 view .LVU297
 841:Middlewares/ST/STM32_USB_Device_Library/Class/CustomHID/Src/usbd_customhid.c ****       USBD_LL_Transmit(pdev, ep, report, len);
 1034              		.loc 1 841 19 is_stmt 0 view .LVU298
 1035 0020 0123     		movs	r3, #1
 1036 0022 2B75     		strb	r3, [r5, #20]
 842:Middlewares/ST/STM32_USB_Device_Library/Class/CustomHID/Src/usbd_customhid.c ****     }
 1037              		.loc 1 842 7 is_stmt 1 view .LVU299
 1038 0024 1346     		mov	r3, r2
 1039 0026 6246     		mov	r2, ip
 1040              	.LVL108:
 842:Middlewares/ST/STM32_USB_Device_Library/Class/CustomHID/Src/usbd_customhid.c ****     }
 1041              		.loc 1 842 7 is_stmt 0 view .LVU300
 1042 0028 FFF7FEFF 		bl	USBD_LL_Transmit
 1043              	.LVL109:
 842:Middlewares/ST/STM32_USB_Device_Library/Class/CustomHID/Src/usbd_customhid.c ****     }
 1044              		.loc 1 842 7 view .LVU301
 1045 002c F2E7     		b	.L66
 1046              		.cfi_endproc
 1047              	.LFE71:
 1049              		.section	.text.USBD_CUSTOM_HID_SendReport,"ax",%progbits
 1050              		.align	1
 1051              		.global	USBD_CUSTOM_HID_SendReport
 1052              		.syntax unified
 1053              		.thumb
ARM GAS  C:\Users\BaiJiang\AppData\Local\Temp\ccRXUetp.s 			page 41


 1054              		.thumb_func
 1056              	USBD_CUSTOM_HID_SendReport:
 1057              	.LVL110:
 1058              	.LFB72:
 861:Middlewares/ST/STM32_USB_Device_Library/Class/CustomHID/Src/usbd_customhid.c ****   USBD_CUSTOM_HID_HandleTypeDef     *hhid = (USBD_CUSTOM_HID_HandleTypeDef *)pdev->pClassData;
 1059              		.loc 1 861 1 is_stmt 1 view -0
 1060              		.cfi_startproc
 1061              		@ args = 0, pretend = 0, frame = 0
 1062              		@ frame_needed = 0, uses_anonymous_args = 0
 861:Middlewares/ST/STM32_USB_Device_Library/Class/CustomHID/Src/usbd_customhid.c ****   USBD_CUSTOM_HID_HandleTypeDef     *hhid = (USBD_CUSTOM_HID_HandleTypeDef *)pdev->pClassData;
 1063              		.loc 1 861 1 is_stmt 0 view .LVU303
 1064 0000 38B5     		push	{r3, r4, r5, lr}
 1065              	.LCFI9:
 1066              		.cfi_def_cfa_offset 16
 1067              		.cfi_offset 3, -16
 1068              		.cfi_offset 4, -12
 1069              		.cfi_offset 5, -8
 1070              		.cfi_offset 14, -4
 862:Middlewares/ST/STM32_USB_Device_Library/Class/CustomHID/Src/usbd_customhid.c **** 
 1071              		.loc 1 862 3 is_stmt 1 view .LVU304
 862:Middlewares/ST/STM32_USB_Device_Library/Class/CustomHID/Src/usbd_customhid.c **** 
 1072              		.loc 1 862 38 is_stmt 0 view .LVU305
 1073 0002 D0F8B852 		ldr	r5, [r0, #696]
 1074              	.LVL111:
 864:Middlewares/ST/STM32_USB_Device_Library/Class/CustomHID/Src/usbd_customhid.c ****   {
 1075              		.loc 1 864 3 is_stmt 1 view .LVU306
 864:Middlewares/ST/STM32_USB_Device_Library/Class/CustomHID/Src/usbd_customhid.c ****   {
 1076              		.loc 1 864 11 is_stmt 0 view .LVU307
 1077 0006 90F89C32 		ldrb	r3, [r0, #668]	@ zero_extendqisi2
 864:Middlewares/ST/STM32_USB_Device_Library/Class/CustomHID/Src/usbd_customhid.c ****   {
 1078              		.loc 1 864 6 view .LVU308
 1079 000a 032B     		cmp	r3, #3
 1080 000c 02D0     		beq	.L77
 876:Middlewares/ST/STM32_USB_Device_Library/Class/CustomHID/Src/usbd_customhid.c **** }
 1081              		.loc 1 876 10 view .LVU309
 1082 000e 0024     		movs	r4, #0
 1083              	.LVL112:
 1084              	.L73:
 877:Middlewares/ST/STM32_USB_Device_Library/Class/CustomHID/Src/usbd_customhid.c **** 
 1085              		.loc 1 877 1 view .LVU310
 1086 0010 2046     		mov	r0, r4
 1087 0012 38BD     		pop	{r3, r4, r5, pc}
 1088              	.LVL113:
 1089              	.L77:
 866:Middlewares/ST/STM32_USB_Device_Library/Class/CustomHID/Src/usbd_customhid.c ****     {
 1090              		.loc 1 866 5 is_stmt 1 view .LVU311
 866:Middlewares/ST/STM32_USB_Device_Library/Class/CustomHID/Src/usbd_customhid.c ****     {
 1091              		.loc 1 866 13 is_stmt 0 view .LVU312
 1092 0014 2C7D     		ldrb	r4, [r5, #20]	@ zero_extendqisi2
 866:Middlewares/ST/STM32_USB_Device_Library/Class/CustomHID/Src/usbd_customhid.c ****     {
 1093              		.loc 1 866 8 view .LVU313
 1094 0016 0CB1     		cbz	r4, .L78
 873:Middlewares/ST/STM32_USB_Device_Library/Class/CustomHID/Src/usbd_customhid.c ****     }
 1095              		.loc 1 873 14 view .LVU314
 1096 0018 0124     		movs	r4, #1
 1097 001a F9E7     		b	.L73
 1098              	.L78:
ARM GAS  C:\Users\BaiJiang\AppData\Local\Temp\ccRXUetp.s 			page 42


 868:Middlewares/ST/STM32_USB_Device_Library/Class/CustomHID/Src/usbd_customhid.c ****       USBD_LL_Transmit(pdev, CUSTOM_HID_EPIN_ADDR, report, len);
 1099              		.loc 1 868 7 is_stmt 1 view .LVU315
 868:Middlewares/ST/STM32_USB_Device_Library/Class/CustomHID/Src/usbd_customhid.c ****       USBD_LL_Transmit(pdev, CUSTOM_HID_EPIN_ADDR, report, len);
 1100              		.loc 1 868 19 is_stmt 0 view .LVU316
 1101 001c 0123     		movs	r3, #1
 1102 001e 2B75     		strb	r3, [r5, #20]
 869:Middlewares/ST/STM32_USB_Device_Library/Class/CustomHID/Src/usbd_customhid.c ****     }
 1103              		.loc 1 869 7 is_stmt 1 view .LVU317
 1104 0020 1346     		mov	r3, r2
 1105 0022 0A46     		mov	r2, r1
 1106              	.LVL114:
 869:Middlewares/ST/STM32_USB_Device_Library/Class/CustomHID/Src/usbd_customhid.c ****     }
 1107              		.loc 1 869 7 is_stmt 0 view .LVU318
 1108 0024 8121     		movs	r1, #129
 1109              	.LVL115:
 869:Middlewares/ST/STM32_USB_Device_Library/Class/CustomHID/Src/usbd_customhid.c ****     }
 1110              		.loc 1 869 7 view .LVU319
 1111 0026 FFF7FEFF 		bl	USBD_LL_Transmit
 1112              	.LVL116:
 869:Middlewares/ST/STM32_USB_Device_Library/Class/CustomHID/Src/usbd_customhid.c ****     }
 1113              		.loc 1 869 7 view .LVU320
 1114 002a F1E7     		b	.L73
 1115              		.cfi_endproc
 1116              	.LFE72:
 1118              		.section	.text.USBD_CUSTOM_HID_RegisterInterface,"ax",%progbits
 1119              		.align	1
 1120              		.global	USBD_CUSTOM_HID_RegisterInterface
 1121              		.syntax unified
 1122              		.thumb
 1123              		.thumb_func
 1125              	USBD_CUSTOM_HID_RegisterInterface:
 1126              	.LVL117:
 1127              	.LFB80:
 988:Middlewares/ST/STM32_USB_Device_Library/Class/CustomHID/Src/usbd_customhid.c **** 
 989:Middlewares/ST/STM32_USB_Device_Library/Class/CustomHID/Src/usbd_customhid.c **** /**
 990:Middlewares/ST/STM32_USB_Device_Library/Class/CustomHID/Src/usbd_customhid.c **** * @brief  USBD_CUSTOM_HID_RegisterInterface
 991:Middlewares/ST/STM32_USB_Device_Library/Class/CustomHID/Src/usbd_customhid.c ****   * @param  pdev: device instance
 992:Middlewares/ST/STM32_USB_Device_Library/Class/CustomHID/Src/usbd_customhid.c ****   * @param  fops: CUSTOMHID Interface callback
 993:Middlewares/ST/STM32_USB_Device_Library/Class/CustomHID/Src/usbd_customhid.c ****   * @retval status
 994:Middlewares/ST/STM32_USB_Device_Library/Class/CustomHID/Src/usbd_customhid.c ****   */
 995:Middlewares/ST/STM32_USB_Device_Library/Class/CustomHID/Src/usbd_customhid.c **** uint8_t  USBD_CUSTOM_HID_RegisterInterface(USBD_HandleTypeDef   *pdev,
 996:Middlewares/ST/STM32_USB_Device_Library/Class/CustomHID/Src/usbd_customhid.c ****                                            USBD_CUSTOM_HID_ItfTypeDef *fops)
 997:Middlewares/ST/STM32_USB_Device_Library/Class/CustomHID/Src/usbd_customhid.c **** {
 1128              		.loc 1 997 1 is_stmt 1 view -0
 1129              		.cfi_startproc
 1130              		@ args = 0, pretend = 0, frame = 0
 1131              		@ frame_needed = 0, uses_anonymous_args = 0
 1132              		@ link register save eliminated.
 998:Middlewares/ST/STM32_USB_Device_Library/Class/CustomHID/Src/usbd_customhid.c ****   uint8_t  ret = USBD_FAIL;
 1133              		.loc 1 998 3 view .LVU322
 999:Middlewares/ST/STM32_USB_Device_Library/Class/CustomHID/Src/usbd_customhid.c **** 
1000:Middlewares/ST/STM32_USB_Device_Library/Class/CustomHID/Src/usbd_customhid.c ****   if (fops != NULL)
 1134              		.loc 1 1000 3 view .LVU323
 1135              		.loc 1 1000 6 is_stmt 0 view .LVU324
 1136 0000 19B1     		cbz	r1, .L81
1001:Middlewares/ST/STM32_USB_Device_Library/Class/CustomHID/Src/usbd_customhid.c ****   {
1002:Middlewares/ST/STM32_USB_Device_Library/Class/CustomHID/Src/usbd_customhid.c ****     pdev->pUserData = fops;
ARM GAS  C:\Users\BaiJiang\AppData\Local\Temp\ccRXUetp.s 			page 43


 1137              		.loc 1 1002 5 is_stmt 1 view .LVU325
 1138              		.loc 1 1002 21 is_stmt 0 view .LVU326
 1139 0002 C0F8BC12 		str	r1, [r0, #700]
1003:Middlewares/ST/STM32_USB_Device_Library/Class/CustomHID/Src/usbd_customhid.c ****     ret = USBD_OK;
 1140              		.loc 1 1003 5 is_stmt 1 view .LVU327
 1141              	.LVL118:
 1142              		.loc 1 1003 9 is_stmt 0 view .LVU328
 1143 0006 0020     		movs	r0, #0
 1144              	.LVL119:
 1145              		.loc 1 1003 9 view .LVU329
 1146 0008 7047     		bx	lr
 1147              	.LVL120:
 1148              	.L81:
 998:Middlewares/ST/STM32_USB_Device_Library/Class/CustomHID/Src/usbd_customhid.c **** 
 1149              		.loc 1 998 12 view .LVU330
 1150 000a 0220     		movs	r0, #2
 1151              	.LVL121:
1004:Middlewares/ST/STM32_USB_Device_Library/Class/CustomHID/Src/usbd_customhid.c ****   }
1005:Middlewares/ST/STM32_USB_Device_Library/Class/CustomHID/Src/usbd_customhid.c **** 
1006:Middlewares/ST/STM32_USB_Device_Library/Class/CustomHID/Src/usbd_customhid.c ****   return ret;
 1152              		.loc 1 1006 3 is_stmt 1 view .LVU331
1007:Middlewares/ST/STM32_USB_Device_Library/Class/CustomHID/Src/usbd_customhid.c **** }
 1153              		.loc 1 1007 1 is_stmt 0 view .LVU332
 1154 000c 7047     		bx	lr
 1155              		.cfi_endproc
 1156              	.LFE80:
 1158              		.global	vendor_request_content1
 1159              		.section	.data.vendor_request_content1,"aw"
 1160              		.align	2
 1163              	vendor_request_content1:
 1164 0000 28000000 		.ascii	"(\000\000\000\000\001\004\000\001\000\000\000\000\000"
 1164      00010400 
 1164      01000000 
 1164      0000
 1165 000e 00000001 		.ascii	"\000\000\000\001XUSB10\000\000\000\000\000\000\000\000"
 1165      58555342 
 1165      31300000 
 1165      00000000 
 1165      0000
 1166 0020 00000000 		.ascii	"\000\000\000\000\000\000\000\000"
 1166      00000000 
 1167              		.section	.data.USBD_CUSTOM_HID_DeviceQualifierDesc,"aw"
 1168              		.align	2
 1171              	USBD_CUSTOM_HID_DeviceQualifierDesc:
 1172 0000 0A060002 		.ascii	"\012\006\000\002\000\000\000@\001\000"
 1172      00000040 
 1172      0100
 1173              		.section	.data.USBD_CUSTOM_HID_Desc,"aw"
 1174              		.align	2
 1177              	USBD_CUSTOM_HID_Desc:
 1178 0000 09211101 		.ascii	"\011!\021\001\000\001\"v\000"
 1178      00012276 
 1178      00
 1179              		.section	.data.USBD_CUSTOM_HID_OtherSpeedCfgDesc,"aw"
 1180              		.align	2
 1183              	USBD_CUSTOM_HID_OtherSpeedCfgDesc:
 1184 0000 09028B00 		.ascii	"\011\002\213\000\001\001\000\3002\011\004\000\000\002"
ARM GAS  C:\Users\BaiJiang\AppData\Local\Temp\ccRXUetp.s 			page 44


 1184      010100C0 
 1184      32090400 
 1184      0002
 1185 000e 03000000 		.ascii	"\003\000\000\000\011!\021\001\000\001\"v\000\007\005"
 1185      09211101 
 1185      00012276 
 1185      000705
 1186 001d 81032000 		.ascii	"\201\003 \000\005\007\005\001\003 \000\005\000"
 1186      05070501 
 1186      03200005 
 1186      00
 1187 002a 00000000 		.space	97
 1187      00000000 
 1187      00000000 
 1187      00000000 
 1187      00000000 
 1188              		.section	.data.USBD_CUSTOM_HID_CfgHSDesc,"aw"
 1189              		.align	2
 1192              	USBD_CUSTOM_HID_CfgHSDesc:
 1193 0000 09028B00 		.ascii	"\011\002\213\000\001\001\000\3002\011\004\000\000\002"
 1193      010100C0 
 1193      32090400 
 1193      0002
 1194 000e 03000000 		.ascii	"\003\000\000\000\011!\021\001\000\001\"v\000\007\005"
 1194      09211101 
 1194      00012276 
 1194      000705
 1195 001d 81032000 		.ascii	"\201\003 \000\005\007\005\001\003 \000\005\000"
 1195      05070501 
 1195      03200005 
 1195      00
 1196 002a 00000000 		.space	97
 1196      00000000 
 1196      00000000 
 1196      00000000 
 1196      00000000 
 1197              		.section	.data.USBD_CUSTOM_HID_CfgFSDesc,"aw"
 1198              		.align	2
 1201              	USBD_CUSTOM_HID_CfgFSDesc:
 1202 0000 09028B00 		.ascii	"\011\002\213\000\004\001\000\240\372\011\004\000\000"
 1202      040100A0 
 1202      FA090400 
 1202      00
 1203 000d 02FF5D01 		.ascii	"\002\377]\001\000\021!\020\001\001%\201\024\003\003"
 1203      00112110 
 1203      01012581 
 1203      140303
 1204 001c 03041302 		.ascii	"\003\004\023\002\010\003\003\007\005\201\003 \000\001"
 1204      08030307 
 1204      05810320 
 1204      0001
 1205 002a 07050203 		.ascii	"\007\005\002\003 \000\010\011\004\001\000\002\377]\001"
 1205      20000809 
 1205      04010002 
 1205      FF5D01
 1206 0039 001B2100 		.ascii	"\000\033!\000\001\001\001\203@\001\004 \026\205\000"
 1206      01010183 
ARM GAS  C:\Users\BaiJiang\AppData\Local\Temp\ccRXUetp.s 			page 45


 1206      40010420 
 1206      168500
 1207 0048 00000000 		.ascii	"\000\000\000\000\000\026\005\000\000\000\000\000\000"
 1207      00160500 
 1207      00000000 
 1207      00
 1208 0055 07058303 		.ascii	"\007\005\203\003 \000\002\007\005\004\003 \000\004\011"
 1208      20000207 
 1208      05040320 
 1208      000409
 1209 0064 04020001 		.ascii	"\004\002\000\001\377]\002\000\011!\000\001\001\"\206"
 1209      FF5D0200 
 1209      09210001 
 1209      012286
 1210 0073 07000705 		.ascii	"\007\000\007\005\206\003 \000\020\011\004\003\000\000"
 1210      86032000 
 1210      10090403 
 1210      0000
 1211 0081 FFFD1304 		.ascii	"\377\375\023\004\006A\000\001\001\003"
 1211      06410001 
 1211      0103
 1212              		.global	USBD_CUSTOM_HID
 1213              		.section	.data.USBD_CUSTOM_HID,"aw"
 1214              		.align	2
 1217              	USBD_CUSTOM_HID:
 1218 0000 00000000 		.word	USBD_CUSTOM_HID_Init
 1219 0004 00000000 		.word	USBD_CUSTOM_HID_DeInit
 1220 0008 00000000 		.word	USBD_CUSTOM_HID_Setup
 1221 000c 00000000 		.word	0
 1222 0010 00000000 		.word	USBD_CUSTOM_HID_EP0_RxReady
 1223 0014 00000000 		.word	USBD_CUSTOM_HID_DataIn
 1224 0018 00000000 		.word	USBD_CUSTOM_HID_DataOut
 1225 001c 00000000 		.word	0
 1226 0020 00000000 		.word	0
 1227 0024 00000000 		.word	0
 1228 0028 00000000 		.word	USBD_CUSTOM_HID_GetHSCfgDesc
 1229 002c 00000000 		.word	USBD_CUSTOM_HID_GetFSCfgDesc
 1230 0030 00000000 		.word	USBD_CUSTOM_HID_GetOtherSpeedCfgDesc
 1231 0034 00000000 		.word	USBD_CUSTOM_HID_GetDeviceQualifierDesc
 1232              		.text
 1233              	.Letext0:
 1234              		.file 2 "D:/GCC/xpack-arm-none-eabi-gcc-13.2.1-1.1/arm-none-eabi/include/machine/_default_types.h"
 1235              		.file 3 "D:/GCC/xpack-arm-none-eabi-gcc-13.2.1-1.1/arm-none-eabi/include/sys/_stdint.h"
 1236              		.file 4 "Middlewares/ST/STM32_USB_Device_Library/Core/Inc/usbd_def.h"
 1237              		.file 5 "Middlewares/ST/STM32_USB_Device_Library/Class/CustomHID/Inc/usbd_customhid.h"
 1238              		.file 6 "Middlewares/ST/STM32_USB_Device_Library/Core/Inc/usbd_core.h"
 1239              		.file 7 "USB_DEVICE/Target/usbd_conf.h"
 1240              		.file 8 "Middlewares/ST/STM32_USB_Device_Library/Core/Inc/usbd_ctlreq.h"
 1241              		.file 9 "Middlewares/ST/STM32_USB_Device_Library/Core/Inc/usbd_ioreq.h"
ARM GAS  C:\Users\BaiJiang\AppData\Local\Temp\ccRXUetp.s 			page 46


DEFINED SYMBOLS
                            *ABS*:00000000 usbd_customhid.c
C:\Users\BaiJiang\AppData\Local\Temp\ccRXUetp.s:19     .text.USBD_CUSTOM_HID_GetFSCfgDesc:00000000 $t
C:\Users\BaiJiang\AppData\Local\Temp\ccRXUetp.s:24     .text.USBD_CUSTOM_HID_GetFSCfgDesc:00000000 USBD_CUSTOM_HID_GetFSCfgDesc
C:\Users\BaiJiang\AppData\Local\Temp\ccRXUetp.s:45     .text.USBD_CUSTOM_HID_GetFSCfgDesc:00000008 $d
C:\Users\BaiJiang\AppData\Local\Temp\ccRXUetp.s:1201   .data.USBD_CUSTOM_HID_CfgFSDesc:00000000 USBD_CUSTOM_HID_CfgFSDesc
C:\Users\BaiJiang\AppData\Local\Temp\ccRXUetp.s:50     .text.USBD_CUSTOM_HID_GetHSCfgDesc:00000000 $t
C:\Users\BaiJiang\AppData\Local\Temp\ccRXUetp.s:55     .text.USBD_CUSTOM_HID_GetHSCfgDesc:00000000 USBD_CUSTOM_HID_GetHSCfgDesc
C:\Users\BaiJiang\AppData\Local\Temp\ccRXUetp.s:76     .text.USBD_CUSTOM_HID_GetHSCfgDesc:00000008 $d
C:\Users\BaiJiang\AppData\Local\Temp\ccRXUetp.s:1192   .data.USBD_CUSTOM_HID_CfgHSDesc:00000000 USBD_CUSTOM_HID_CfgHSDesc
C:\Users\BaiJiang\AppData\Local\Temp\ccRXUetp.s:81     .text.USBD_CUSTOM_HID_GetOtherSpeedCfgDesc:00000000 $t
C:\Users\BaiJiang\AppData\Local\Temp\ccRXUetp.s:86     .text.USBD_CUSTOM_HID_GetOtherSpeedCfgDesc:00000000 USBD_CUSTOM_HID_GetOtherSpeedCfgDesc
C:\Users\BaiJiang\AppData\Local\Temp\ccRXUetp.s:107    .text.USBD_CUSTOM_HID_GetOtherSpeedCfgDesc:00000008 $d
C:\Users\BaiJiang\AppData\Local\Temp\ccRXUetp.s:1183   .data.USBD_CUSTOM_HID_OtherSpeedCfgDesc:00000000 USBD_CUSTOM_HID_OtherSpeedCfgDesc
C:\Users\BaiJiang\AppData\Local\Temp\ccRXUetp.s:112    .text.USBD_CUSTOM_HID_DataIn:00000000 $t
C:\Users\BaiJiang\AppData\Local\Temp\ccRXUetp.s:117    .text.USBD_CUSTOM_HID_DataIn:00000000 USBD_CUSTOM_HID_DataIn
C:\Users\BaiJiang\AppData\Local\Temp\ccRXUetp.s:140    .text.USBD_CUSTOM_HID_EP0_RxReady:00000000 $t
C:\Users\BaiJiang\AppData\Local\Temp\ccRXUetp.s:145    .text.USBD_CUSTOM_HID_EP0_RxReady:00000000 USBD_CUSTOM_HID_EP0_RxReady
C:\Users\BaiJiang\AppData\Local\Temp\ccRXUetp.s:197    .text.USBD_CUSTOM_HID_GetDeviceQualifierDesc:00000000 $t
C:\Users\BaiJiang\AppData\Local\Temp\ccRXUetp.s:202    .text.USBD_CUSTOM_HID_GetDeviceQualifierDesc:00000000 USBD_CUSTOM_HID_GetDeviceQualifierDesc
C:\Users\BaiJiang\AppData\Local\Temp\ccRXUetp.s:223    .text.USBD_CUSTOM_HID_GetDeviceQualifierDesc:00000008 $d
C:\Users\BaiJiang\AppData\Local\Temp\ccRXUetp.s:1171   .data.USBD_CUSTOM_HID_DeviceQualifierDesc:00000000 USBD_CUSTOM_HID_DeviceQualifierDesc
C:\Users\BaiJiang\AppData\Local\Temp\ccRXUetp.s:228    .text.USBD_CUSTOM_HID_DataOut:00000000 $t
C:\Users\BaiJiang\AppData\Local\Temp\ccRXUetp.s:233    .text.USBD_CUSTOM_HID_DataOut:00000000 USBD_CUSTOM_HID_DataOut
C:\Users\BaiJiang\AppData\Local\Temp\ccRXUetp.s:283    .text.USBD_CUSTOM_HID_Setup:00000000 $t
C:\Users\BaiJiang\AppData\Local\Temp\ccRXUetp.s:288    .text.USBD_CUSTOM_HID_Setup:00000000 USBD_CUSTOM_HID_Setup
C:\Users\BaiJiang\AppData\Local\Temp\ccRXUetp.s:347    .text.USBD_CUSTOM_HID_Setup:00000034 $d
C:\Users\BaiJiang\AppData\Local\Temp\ccRXUetp.s:357    .text.USBD_CUSTOM_HID_Setup:0000003e $t
C:\Users\BaiJiang\AppData\Local\Temp\ccRXUetp.s:447    .text.USBD_CUSTOM_HID_Setup:0000008c $d
C:\Users\BaiJiang\AppData\Local\Temp\ccRXUetp.s:459    .text.USBD_CUSTOM_HID_Setup:00000098 $t
C:\Users\BaiJiang\AppData\Local\Temp\ccRXUetp.s:670    .text.USBD_CUSTOM_HID_Setup:0000014c $d
C:\Users\BaiJiang\AppData\Local\Temp\ccRXUetp.s:1177   .data.USBD_CUSTOM_HID_Desc:00000000 USBD_CUSTOM_HID_Desc
C:\Users\BaiJiang\AppData\Local\Temp\ccRXUetp.s:1163   .data.vendor_request_content1:00000000 vendor_request_content1
C:\Users\BaiJiang\AppData\Local\Temp\ccRXUetp.s:677    .text.USBD_CUSTOM_HID_DeInit:00000000 $t
C:\Users\BaiJiang\AppData\Local\Temp\ccRXUetp.s:682    .text.USBD_CUSTOM_HID_DeInit:00000000 USBD_CUSTOM_HID_DeInit
C:\Users\BaiJiang\AppData\Local\Temp\ccRXUetp.s:746    .text.USBD_CUSTOM_HID_Init:00000000 $t
C:\Users\BaiJiang\AppData\Local\Temp\ccRXUetp.s:751    .text.USBD_CUSTOM_HID_Init:00000000 USBD_CUSTOM_HID_Init
C:\Users\BaiJiang\AppData\Local\Temp\ccRXUetp.s:980    .text.USBD_CUSTOM_HID_SendReport_ep:00000000 $t
C:\Users\BaiJiang\AppData\Local\Temp\ccRXUetp.s:986    .text.USBD_CUSTOM_HID_SendReport_ep:00000000 USBD_CUSTOM_HID_SendReport_ep
C:\Users\BaiJiang\AppData\Local\Temp\ccRXUetp.s:1050   .text.USBD_CUSTOM_HID_SendReport:00000000 $t
C:\Users\BaiJiang\AppData\Local\Temp\ccRXUetp.s:1056   .text.USBD_CUSTOM_HID_SendReport:00000000 USBD_CUSTOM_HID_SendReport
C:\Users\BaiJiang\AppData\Local\Temp\ccRXUetp.s:1119   .text.USBD_CUSTOM_HID_RegisterInterface:00000000 $t
C:\Users\BaiJiang\AppData\Local\Temp\ccRXUetp.s:1125   .text.USBD_CUSTOM_HID_RegisterInterface:00000000 USBD_CUSTOM_HID_RegisterInterface
C:\Users\BaiJiang\AppData\Local\Temp\ccRXUetp.s:1160   .data.vendor_request_content1:00000000 $d
C:\Users\BaiJiang\AppData\Local\Temp\ccRXUetp.s:1168   .data.USBD_CUSTOM_HID_DeviceQualifierDesc:00000000 $d
C:\Users\BaiJiang\AppData\Local\Temp\ccRXUetp.s:1174   .data.USBD_CUSTOM_HID_Desc:00000000 $d
C:\Users\BaiJiang\AppData\Local\Temp\ccRXUetp.s:1180   .data.USBD_CUSTOM_HID_OtherSpeedCfgDesc:00000000 $d
C:\Users\BaiJiang\AppData\Local\Temp\ccRXUetp.s:1189   .data.USBD_CUSTOM_HID_CfgHSDesc:00000000 $d
C:\Users\BaiJiang\AppData\Local\Temp\ccRXUetp.s:1198   .data.USBD_CUSTOM_HID_CfgFSDesc:00000000 $d
C:\Users\BaiJiang\AppData\Local\Temp\ccRXUetp.s:1217   .data.USBD_CUSTOM_HID:00000000 USBD_CUSTOM_HID
C:\Users\BaiJiang\AppData\Local\Temp\ccRXUetp.s:1214   .data.USBD_CUSTOM_HID:00000000 $d

UNDEFINED SYMBOLS
USBD_LL_PrepareReceive
USBD_CtlError
USBD_CtlSendData
USBD_CtlPrepareRx
ARM GAS  C:\Users\BaiJiang\AppData\Local\Temp\ccRXUetp.s 			page 47


CUSTOM_HID_ReportDesc_FS1
USBD_LL_CloseEP
USBD_static_free
USBD_LL_OpenEP
USBD_static_malloc
USBD_LL_Transmit
